Archive member included to satisfy reference by file (symbol)

build/lib/liblibapp.a(baseInit.cpp.obj)
                              CMakeFiles/Furina.elf.dir/Core/startup_stm32f407vetx.s.obj (TIM7_IRQHandler)
build/lib/liblibapp.a(main.cpp.obj)
                              E:/Tools/Develop/ToolsKits/ARM/arm-gnu-toolchain_v13_3/bin/../lib/gcc/arm-none-eabi/13.3.1/thumb/v7e-m+fp/hard/crt0.o (main)
build/lib/liblibapp.a(app.cpp.obj)
                              build/lib/liblibapp.a(main.cpp.obj) (app_init())
build/lib/liblibbsp.a(CPU_RunTime.c.obj)
                              build/lib/liblibapp.a(baseInit.cpp.obj) (ConfigureTimerForRunTimeStats)
build/lib/liblibbsp.a(adc.c.obj)
                              build/lib/liblibapp.a(app.cpp.obj) (adc1_init)
build/lib/liblibbsp.a(fsmc.c.obj)
                              build/lib/liblibapp.a(baseInit.cpp.obj) (fsmc_init)
build/lib/liblibbsp.a(key_exit.c.obj)
                              build/lib/liblibapp.a(baseInit.cpp.obj) (key_exti_init)
build/lib/liblibbsp.a(lcd.c.obj)
                              build/lib/liblibapp.a(baseInit.cpp.obj) (lcd_init)
build/lib/liblibbsp.a(timer.c.obj)
                              build/lib/liblibapp.a(app.cpp.obj) (timer2_init)
build/lib/liblibbsp.a(usart.c.obj)
                              build/lib/liblibapp.a(app.cpp.obj) (usart1_init)
build/lib/liblibdrivers.a(stm32f4xx_hal.c.obj)
                              build/lib/liblibapp.a(baseInit.cpp.obj) (uwTickPrio)
build/lib/liblibdrivers.a(stm32f4xx_hal_adc.c.obj)
                              build/lib/liblibbsp.a(adc.c.obj) (HAL_ADC_Init)
build/lib/liblibdrivers.a(stm32f4xx_hal_adc_ex.c.obj)
                              build/lib/liblibdrivers.a(stm32f4xx_hal_adc.c.obj) (HAL_ADCEx_InjectedConvCpltCallback)
build/lib/liblibdrivers.a(stm32f4xx_hal_cortex.c.obj)
                              build/lib/liblibdrivers.a(stm32f4xx_hal.c.obj) (HAL_NVIC_SetPriorityGrouping)
build/lib/liblibdrivers.a(stm32f4xx_hal_dma.c.obj)
                              build/lib/liblibbsp.a(fsmc.c.obj) (HAL_DMA_Init)
build/lib/liblibdrivers.a(stm32f4xx_hal_gpio.c.obj)
                              build/lib/liblibbsp.a(adc.c.obj) (HAL_GPIO_Init)
build/lib/liblibdrivers.a(stm32f4xx_hal_rcc.c.obj)
                              build/lib/liblibapp.a(baseInit.cpp.obj) (HAL_RCC_OscConfig)
build/lib/liblibdrivers.a(stm32f4xx_hal_sram.c.obj)
                              build/lib/liblibbsp.a(fsmc.c.obj) (HAL_SRAM_Init)
build/lib/liblibdrivers.a(stm32f4xx_hal_tim.c.obj)
                              build/lib/liblibapp.a(baseInit.cpp.obj) (HAL_TIM_Base_Init)
build/lib/liblibdrivers.a(stm32f4xx_hal_tim_ex.c.obj)
                              build/lib/liblibdrivers.a(stm32f4xx_hal_tim.c.obj) (TIMEx_DMACommutationCplt)
build/lib/liblibdrivers.a(stm32f4xx_hal_uart.c.obj)
                              build/lib/liblibbsp.a(usart.c.obj) (HAL_UART_Init)
build/lib/liblibdrivers.a(stm32f4xx_ll_fsmc.c.obj)
                              build/lib/liblibdrivers.a(stm32f4xx_hal_sram.c.obj) (FSMC_NORSRAM_Init)
build/lib/liblibmodule.a(key.cpp.obj)
                              build/lib/liblibapp.a(app.cpp.obj) (Key::stateHandler(unsigned char))
E:/Tools/Develop/ToolsKits/ARM/arm-gnu-toolchain_v13_3/bin/../lib/gcc/arm-none-eabi/13.3.1/thumb/v7e-m+fp/hard\libgcc.a(_arm_muldf3.o)
                              build/lib/liblibapp.a(app.cpp.obj) (__aeabi_dmul)
E:/Tools/Develop/ToolsKits/ARM/arm-gnu-toolchain_v13_3/bin/../lib/gcc/arm-none-eabi/13.3.1/thumb/v7e-m+fp/hard\libgcc.a(_arm_addsubdf3.o)
                              build/lib/liblibapp.a(app.cpp.obj) (__aeabi_f2d)
E:/Tools/Develop/ToolsKits/ARM/arm-gnu-toolchain_v13_3/bin/../lib/gcc/arm-none-eabi/13.3.1/thumb/v7e-m+fp/hard\libgcc.a(_aeabi_ldivmod.o)
                              build/lib/liblibdrivers.a(stm32f4xx_hal_rcc.c.obj) (__aeabi_ldivmod)
E:/Tools/Develop/ToolsKits/ARM/arm-gnu-toolchain_v13_3/bin/../lib/gcc/arm-none-eabi/13.3.1/thumb/v7e-m+fp/hard\libgcc.a(_aeabi_uldivmod.o)
                              build/lib/liblibdrivers.a(stm32f4xx_hal_rcc.c.obj) (__aeabi_uldivmod)
E:/Tools/Develop/ToolsKits/ARM/arm-gnu-toolchain_v13_3/bin/../lib/gcc/arm-none-eabi/13.3.1/thumb/v7e-m+fp/hard\libgcc.a(_udivmoddi4.o)
                              E:/Tools/Develop/ToolsKits/ARM/arm-gnu-toolchain_v13_3/bin/../lib/gcc/arm-none-eabi/13.3.1/thumb/v7e-m+fp/hard\libgcc.a(_aeabi_ldivmod.o) (__udivmoddi4)
E:/Tools/Develop/ToolsKits/ARM/arm-gnu-toolchain_v13_3/bin/../lib/gcc/arm-none-eabi/13.3.1/thumb/v7e-m+fp/hard\libgcc.a(unwind-arm.o)
                              build/lib/liblibapp.a(baseInit.cpp.obj) (__aeabi_unwind_cpp_pr0)
E:/Tools/Develop/ToolsKits/ARM/arm-gnu-toolchain_v13_3/bin/../lib/gcc/arm-none-eabi/13.3.1/thumb/v7e-m+fp/hard\libgcc.a(libunwind.o)
                              E:/Tools/Develop/ToolsKits/ARM/arm-gnu-toolchain_v13_3/bin/../lib/gcc/arm-none-eabi/13.3.1/thumb/v7e-m+fp/hard\libgcc.a(unwind-arm.o) (restore_core_regs)
E:/Tools/Develop/ToolsKits/ARM/arm-gnu-toolchain_v13_3/bin/../lib/gcc/arm-none-eabi/13.3.1/thumb/v7e-m+fp/hard\libgcc.a(pr-support.o)
                              E:/Tools/Develop/ToolsKits/ARM/arm-gnu-toolchain_v13_3/bin/../lib/gcc/arm-none-eabi/13.3.1/thumb/v7e-m+fp/hard\libgcc.a(unwind-arm.o) (__gnu_unwind_execute)
E:/Tools/Develop/ToolsKits/ARM/arm-gnu-toolchain_v13_3/bin/../lib/gcc/arm-none-eabi/13.3.1/thumb/v7e-m+fp/hard\libgcc.a(_dvmd_tls.o)
                              E:/Tools/Develop/ToolsKits/ARM/arm-gnu-toolchain_v13_3/bin/../lib/gcc/arm-none-eabi/13.3.1/thumb/v7e-m+fp/hard\libgcc.a(_aeabi_ldivmod.o) (__aeabi_ldiv0)
E:/Tools/Develop/ToolsKits/ARM/arm-gnu-toolchain_v13_3/bin/../lib/gcc/arm-none-eabi/13.3.1/thumb/v7e-m+fp/hard\libc.a(libc_a-abort.o)
                              E:/Tools/Develop/ToolsKits/ARM/arm-gnu-toolchain_v13_3/bin/../lib/gcc/arm-none-eabi/13.3.1/thumb/v7e-m+fp/hard\libgcc.a(unwind-arm.o) (abort)
E:/Tools/Develop/ToolsKits/ARM/arm-gnu-toolchain_v13_3/bin/../lib/gcc/arm-none-eabi/13.3.1/thumb/v7e-m+fp/hard\libc.a(libc_a-exit.o)
                              E:/Tools/Develop/ToolsKits/ARM/arm-gnu-toolchain_v13_3/bin/../lib/gcc/arm-none-eabi/13.3.1/thumb/v7e-m+fp/hard/crt0.o (exit)
E:/Tools/Develop/ToolsKits/ARM/arm-gnu-toolchain_v13_3/bin/../lib/gcc/arm-none-eabi/13.3.1/thumb/v7e-m+fp/hard\libc.a(libc_a-findfp.o)
                              E:/Tools/Develop/ToolsKits/ARM/arm-gnu-toolchain_v13_3/bin/../lib/gcc/arm-none-eabi/13.3.1/thumb/v7e-m+fp/hard\libc.a(libc_a-exit.o) (__stdio_exit_handler)
E:/Tools/Develop/ToolsKits/ARM/arm-gnu-toolchain_v13_3/bin/../lib/gcc/arm-none-eabi/13.3.1/thumb/v7e-m+fp/hard\libc.a(libc_a-fwalk.o)
                              E:/Tools/Develop/ToolsKits/ARM/arm-gnu-toolchain_v13_3/bin/../lib/gcc/arm-none-eabi/13.3.1/thumb/v7e-m+fp/hard\libc.a(libc_a-findfp.o) (_fwalk_sglue)
E:/Tools/Develop/ToolsKits/ARM/arm-gnu-toolchain_v13_3/bin/../lib/gcc/arm-none-eabi/13.3.1/thumb/v7e-m+fp/hard\libc.a(libc_a-printf.o)
                              build/lib/liblibapp.a(app.cpp.obj) (printf)
E:/Tools/Develop/ToolsKits/ARM/arm-gnu-toolchain_v13_3/bin/../lib/gcc/arm-none-eabi/13.3.1/thumb/v7e-m+fp/hard\libc.a(libc_a-stdio.o)
                              E:/Tools/Develop/ToolsKits/ARM/arm-gnu-toolchain_v13_3/bin/../lib/gcc/arm-none-eabi/13.3.1/thumb/v7e-m+fp/hard\libc.a(libc_a-findfp.o) (__sread)
E:/Tools/Develop/ToolsKits/ARM/arm-gnu-toolchain_v13_3/bin/../lib/gcc/arm-none-eabi/13.3.1/thumb/v7e-m+fp/hard\libc.a(libc_a-memset.o)
                              E:/Tools/Develop/ToolsKits/ARM/arm-gnu-toolchain_v13_3/bin/../lib/gcc/arm-none-eabi/13.3.1/thumb/v7e-m+fp/hard/crt0.o (memset)
E:/Tools/Develop/ToolsKits/ARM/arm-gnu-toolchain_v13_3/bin/../lib/gcc/arm-none-eabi/13.3.1/thumb/v7e-m+fp/hard\libc.a(libc_a-signal.o)
                              E:/Tools/Develop/ToolsKits/ARM/arm-gnu-toolchain_v13_3/bin/../lib/gcc/arm-none-eabi/13.3.1/thumb/v7e-m+fp/hard\libc.a(libc_a-abort.o) (raise)
E:/Tools/Develop/ToolsKits/ARM/arm-gnu-toolchain_v13_3/bin/../lib/gcc/arm-none-eabi/13.3.1/thumb/v7e-m+fp/hard\libc.a(libc_a-closer.o)
                              E:/Tools/Develop/ToolsKits/ARM/arm-gnu-toolchain_v13_3/bin/../lib/gcc/arm-none-eabi/13.3.1/thumb/v7e-m+fp/hard\libc.a(libc_a-stdio.o) (_close_r)
E:/Tools/Develop/ToolsKits/ARM/arm-gnu-toolchain_v13_3/bin/../lib/gcc/arm-none-eabi/13.3.1/thumb/v7e-m+fp/hard\libc.a(libc_a-reent.o)
                              E:/Tools/Develop/ToolsKits/ARM/arm-gnu-toolchain_v13_3/bin/../lib/gcc/arm-none-eabi/13.3.1/thumb/v7e-m+fp/hard\libc.a(libc_a-closer.o) (errno)
E:/Tools/Develop/ToolsKits/ARM/arm-gnu-toolchain_v13_3/bin/../lib/gcc/arm-none-eabi/13.3.1/thumb/v7e-m+fp/hard\libc.a(libc_a-impure.o)
                              E:/Tools/Develop/ToolsKits/ARM/arm-gnu-toolchain_v13_3/bin/../lib/gcc/arm-none-eabi/13.3.1/thumb/v7e-m+fp/hard\libc.a(libc_a-printf.o) (_impure_ptr)
E:/Tools/Develop/ToolsKits/ARM/arm-gnu-toolchain_v13_3/bin/../lib/gcc/arm-none-eabi/13.3.1/thumb/v7e-m+fp/hard\libc.a(libc_a-lseekr.o)
                              E:/Tools/Develop/ToolsKits/ARM/arm-gnu-toolchain_v13_3/bin/../lib/gcc/arm-none-eabi/13.3.1/thumb/v7e-m+fp/hard\libc.a(libc_a-stdio.o) (_lseek_r)
E:/Tools/Develop/ToolsKits/ARM/arm-gnu-toolchain_v13_3/bin/../lib/gcc/arm-none-eabi/13.3.1/thumb/v7e-m+fp/hard\libc.a(libc_a-readr.o)
                              E:/Tools/Develop/ToolsKits/ARM/arm-gnu-toolchain_v13_3/bin/../lib/gcc/arm-none-eabi/13.3.1/thumb/v7e-m+fp/hard\libc.a(libc_a-stdio.o) (_read_r)
E:/Tools/Develop/ToolsKits/ARM/arm-gnu-toolchain_v13_3/bin/../lib/gcc/arm-none-eabi/13.3.1/thumb/v7e-m+fp/hard\libc.a(libc_a-signalr.o)
                              E:/Tools/Develop/ToolsKits/ARM/arm-gnu-toolchain_v13_3/bin/../lib/gcc/arm-none-eabi/13.3.1/thumb/v7e-m+fp/hard\libc.a(libc_a-signal.o) (_kill_r)
E:/Tools/Develop/ToolsKits/ARM/arm-gnu-toolchain_v13_3/bin/../lib/gcc/arm-none-eabi/13.3.1/thumb/v7e-m+fp/hard\libc.a(libc_a-writer.o)
                              E:/Tools/Develop/ToolsKits/ARM/arm-gnu-toolchain_v13_3/bin/../lib/gcc/arm-none-eabi/13.3.1/thumb/v7e-m+fp/hard\libc.a(libc_a-stdio.o) (_write_r)
E:/Tools/Develop/ToolsKits/ARM/arm-gnu-toolchain_v13_3/bin/../lib/gcc/arm-none-eabi/13.3.1/thumb/v7e-m+fp/hard\libc.a(libc_a-errno.o)
                              CMakeFiles/Furina.elf.dir/Core/syscalls.c.obj (__errno)
E:/Tools/Develop/ToolsKits/ARM/arm-gnu-toolchain_v13_3/bin/../lib/gcc/arm-none-eabi/13.3.1/thumb/v7e-m+fp/hard\libc.a(libc_a-init.o)
                              E:/Tools/Develop/ToolsKits/ARM/arm-gnu-toolchain_v13_3/bin/../lib/gcc/arm-none-eabi/13.3.1/thumb/v7e-m+fp/hard/crt0.o (__libc_init_array)
E:/Tools/Develop/ToolsKits/ARM/arm-gnu-toolchain_v13_3/bin/../lib/gcc/arm-none-eabi/13.3.1/thumb/v7e-m+fp/hard\libc.a(libc_a-lock.o)
                              E:/Tools/Develop/ToolsKits/ARM/arm-gnu-toolchain_v13_3/bin/../lib/gcc/arm-none-eabi/13.3.1/thumb/v7e-m+fp/hard\libc.a(libc_a-findfp.o) (__retarget_lock_init_recursive)
E:/Tools/Develop/ToolsKits/ARM/arm-gnu-toolchain_v13_3/bin/../lib/gcc/arm-none-eabi/13.3.1/thumb/v7e-m+fp/hard\libc.a(libc_a-memcpy.o)
                              E:/Tools/Develop/ToolsKits/ARM/arm-gnu-toolchain_v13_3/bin/../lib/gcc/arm-none-eabi/13.3.1/thumb/v7e-m+fp/hard\libgcc.a(unwind-arm.o) (memcpy)
E:/Tools/Develop/ToolsKits/ARM/arm-gnu-toolchain_v13_3/bin/../lib/gcc/arm-none-eabi/13.3.1/thumb/v7e-m+fp/hard\libc.a(libc_a-__call_atexit.o)
                              E:/Tools/Develop/ToolsKits/ARM/arm-gnu-toolchain_v13_3/bin/../lib/gcc/arm-none-eabi/13.3.1/thumb/v7e-m+fp/hard\libc.a(libc_a-exit.o) (__call_exitprocs)
E:/Tools/Develop/ToolsKits/ARM/arm-gnu-toolchain_v13_3/bin/../lib/gcc/arm-none-eabi/13.3.1/thumb/v7e-m+fp/hard\libc.a(libc_a-atexit.o)
                              E:/Tools/Develop/ToolsKits/ARM/arm-gnu-toolchain_v13_3/bin/../lib/gcc/arm-none-eabi/13.3.1/thumb/v7e-m+fp/hard\libc.a(libc_a-__call_atexit.o) (atexit)
E:/Tools/Develop/ToolsKits/ARM/arm-gnu-toolchain_v13_3/bin/../lib/gcc/arm-none-eabi/13.3.1/thumb/v7e-m+fp/hard\libc.a(libc_a-freer.o)
                              E:/Tools/Develop/ToolsKits/ARM/arm-gnu-toolchain_v13_3/bin/../lib/gcc/arm-none-eabi/13.3.1/thumb/v7e-m+fp/hard\libc.a(libc_a-reent.o) (_free_r)
E:/Tools/Develop/ToolsKits/ARM/arm-gnu-toolchain_v13_3/bin/../lib/gcc/arm-none-eabi/13.3.1/thumb/v7e-m+fp/hard\libc.a(libc_a-mallocr.o)
                              E:/Tools/Develop/ToolsKits/ARM/arm-gnu-toolchain_v13_3/bin/../lib/gcc/arm-none-eabi/13.3.1/thumb/v7e-m+fp/hard\libc.a(libc_a-findfp.o) (_malloc_r)
E:/Tools/Develop/ToolsKits/ARM/arm-gnu-toolchain_v13_3/bin/../lib/gcc/arm-none-eabi/13.3.1/thumb/v7e-m+fp/hard\libc.a(libc_a-mlock.o)
                              E:/Tools/Develop/ToolsKits/ARM/arm-gnu-toolchain_v13_3/bin/../lib/gcc/arm-none-eabi/13.3.1/thumb/v7e-m+fp/hard\libc.a(libc_a-freer.o) (__malloc_lock)
E:/Tools/Develop/ToolsKits/ARM/arm-gnu-toolchain_v13_3/bin/../lib/gcc/arm-none-eabi/13.3.1/thumb/v7e-m+fp/hard\libc.a(libc_a-vfprintf.o)
                              E:/Tools/Develop/ToolsKits/ARM/arm-gnu-toolchain_v13_3/bin/../lib/gcc/arm-none-eabi/13.3.1/thumb/v7e-m+fp/hard\libc.a(libc_a-printf.o) (_vfprintf_r)
E:/Tools/Develop/ToolsKits/ARM/arm-gnu-toolchain_v13_3/bin/../lib/gcc/arm-none-eabi/13.3.1/thumb/v7e-m+fp/hard\libc.a(libc_a-sprint_r.o)
                              E:/Tools/Develop/ToolsKits/ARM/arm-gnu-toolchain_v13_3/bin/../lib/gcc/arm-none-eabi/13.3.1/thumb/v7e-m+fp/hard\libc.a(libc_a-vfprintf.o) (__sprint_r)
E:/Tools/Develop/ToolsKits/ARM/arm-gnu-toolchain_v13_3/bin/../lib/gcc/arm-none-eabi/13.3.1/thumb/v7e-m+fp/hard\libc.a(libc_a-fclose.o)
                              E:/Tools/Develop/ToolsKits/ARM/arm-gnu-toolchain_v13_3/bin/../lib/gcc/arm-none-eabi/13.3.1/thumb/v7e-m+fp/hard\libc.a(libc_a-findfp.o) (_fclose_r)
E:/Tools/Develop/ToolsKits/ARM/arm-gnu-toolchain_v13_3/bin/../lib/gcc/arm-none-eabi/13.3.1/thumb/v7e-m+fp/hard\libc.a(libc_a-fflush.o)
                              E:/Tools/Develop/ToolsKits/ARM/arm-gnu-toolchain_v13_3/bin/../lib/gcc/arm-none-eabi/13.3.1/thumb/v7e-m+fp/hard\libc.a(libc_a-fclose.o) (__sflush_r)
E:/Tools/Develop/ToolsKits/ARM/arm-gnu-toolchain_v13_3/bin/../lib/gcc/arm-none-eabi/13.3.1/thumb/v7e-m+fp/hard\libc.a(libc_a-fvwrite.o)
                              E:/Tools/Develop/ToolsKits/ARM/arm-gnu-toolchain_v13_3/bin/../lib/gcc/arm-none-eabi/13.3.1/thumb/v7e-m+fp/hard\libc.a(libc_a-sprint_r.o) (__sfvwrite_r)
E:/Tools/Develop/ToolsKits/ARM/arm-gnu-toolchain_v13_3/bin/../lib/gcc/arm-none-eabi/13.3.1/thumb/v7e-m+fp/hard\libc.a(libc_a-wsetup.o)
                              E:/Tools/Develop/ToolsKits/ARM/arm-gnu-toolchain_v13_3/bin/../lib/gcc/arm-none-eabi/13.3.1/thumb/v7e-m+fp/hard\libc.a(libc_a-vfprintf.o) (__swsetup_r)
E:/Tools/Develop/ToolsKits/ARM/arm-gnu-toolchain_v13_3/bin/../lib/gcc/arm-none-eabi/13.3.1/thumb/v7e-m+fp/hard\libc.a(libc_a-memmove.o)
                              E:/Tools/Develop/ToolsKits/ARM/arm-gnu-toolchain_v13_3/bin/../lib/gcc/arm-none-eabi/13.3.1/thumb/v7e-m+fp/hard\libc.a(libc_a-fvwrite.o) (memmove)
E:/Tools/Develop/ToolsKits/ARM/arm-gnu-toolchain_v13_3/bin/../lib/gcc/arm-none-eabi/13.3.1/thumb/v7e-m+fp/hard\libc.a(libc_a-strncpy.o)
                              E:/Tools/Develop/ToolsKits/ARM/arm-gnu-toolchain_v13_3/bin/../lib/gcc/arm-none-eabi/13.3.1/thumb/v7e-m+fp/hard\libc.a(libc_a-vfprintf.o) (strncpy)
E:/Tools/Develop/ToolsKits/ARM/arm-gnu-toolchain_v13_3/bin/../lib/gcc/arm-none-eabi/13.3.1/thumb/v7e-m+fp/hard\libc.a(libc_a-locale.o)
                              E:/Tools/Develop/ToolsKits/ARM/arm-gnu-toolchain_v13_3/bin/../lib/gcc/arm-none-eabi/13.3.1/thumb/v7e-m+fp/hard\libc.a(libc_a-vfprintf.o) (__global_locale)
E:/Tools/Develop/ToolsKits/ARM/arm-gnu-toolchain_v13_3/bin/../lib/gcc/arm-none-eabi/13.3.1/thumb/v7e-m+fp/hard\libc.a(libc_a-localeconv.o)
                              E:/Tools/Develop/ToolsKits/ARM/arm-gnu-toolchain_v13_3/bin/../lib/gcc/arm-none-eabi/13.3.1/thumb/v7e-m+fp/hard\libc.a(libc_a-vfprintf.o) (_localeconv_r)
E:/Tools/Develop/ToolsKits/ARM/arm-gnu-toolchain_v13_3/bin/../lib/gcc/arm-none-eabi/13.3.1/thumb/v7e-m+fp/hard\libc.a(libc_a-sbrkr.o)
                              E:/Tools/Develop/ToolsKits/ARM/arm-gnu-toolchain_v13_3/bin/../lib/gcc/arm-none-eabi/13.3.1/thumb/v7e-m+fp/hard\libc.a(libc_a-freer.o) (_sbrk_r)
E:/Tools/Develop/ToolsKits/ARM/arm-gnu-toolchain_v13_3/bin/../lib/gcc/arm-none-eabi/13.3.1/thumb/v7e-m+fp/hard\libc.a(libc_a-fini.o)
                              E:/Tools/Develop/ToolsKits/ARM/arm-gnu-toolchain_v13_3/bin/../lib/gcc/arm-none-eabi/13.3.1/thumb/v7e-m+fp/hard\libc.a(libc_a-__call_atexit.o) (__libc_fini_array)
E:/Tools/Develop/ToolsKits/ARM/arm-gnu-toolchain_v13_3/bin/../lib/gcc/arm-none-eabi/13.3.1/thumb/v7e-m+fp/hard\libc.a(libc_a-sysconf.o)
                              E:/Tools/Develop/ToolsKits/ARM/arm-gnu-toolchain_v13_3/bin/../lib/gcc/arm-none-eabi/13.3.1/thumb/v7e-m+fp/hard\libc.a(libc_a-freer.o) (sysconf)
E:/Tools/Develop/ToolsKits/ARM/arm-gnu-toolchain_v13_3/bin/../lib/gcc/arm-none-eabi/13.3.1/thumb/v7e-m+fp/hard\libc.a(libc_a-strcmp.o)
                              E:/Tools/Develop/ToolsKits/ARM/arm-gnu-toolchain_v13_3/bin/../lib/gcc/arm-none-eabi/13.3.1/thumb/v7e-m+fp/hard\libc.a(libc_a-locale.o) (strcmp)
E:/Tools/Develop/ToolsKits/ARM/arm-gnu-toolchain_v13_3/bin/../lib/gcc/arm-none-eabi/13.3.1/thumb/v7e-m+fp/hard\libc.a(libc_a-strcpy.o)
                              E:/Tools/Develop/ToolsKits/ARM/arm-gnu-toolchain_v13_3/bin/../lib/gcc/arm-none-eabi/13.3.1/thumb/v7e-m+fp/hard\libc.a(libc_a-locale.o) (strcpy)
E:/Tools/Develop/ToolsKits/ARM/arm-gnu-toolchain_v13_3/bin/../lib/gcc/arm-none-eabi/13.3.1/thumb/v7e-m+fp/hard\libc.a(libc_a-memchr.o)
                              E:/Tools/Develop/ToolsKits/ARM/arm-gnu-toolchain_v13_3/bin/../lib/gcc/arm-none-eabi/13.3.1/thumb/v7e-m+fp/hard\libc.a(libc_a-vfprintf.o) (memchr)
E:/Tools/Develop/ToolsKits/ARM/arm-gnu-toolchain_v13_3/bin/../lib/gcc/arm-none-eabi/13.3.1/thumb/v7e-m+fp/hard\libc.a(libc_a-strlen.o)
                              E:/Tools/Develop/ToolsKits/ARM/arm-gnu-toolchain_v13_3/bin/../lib/gcc/arm-none-eabi/13.3.1/thumb/v7e-m+fp/hard\libc.a(libc_a-vfprintf.o) (strlen)
E:/Tools/Develop/ToolsKits/ARM/arm-gnu-toolchain_v13_3/bin/../lib/gcc/arm-none-eabi/13.3.1/thumb/v7e-m+fp/hard\libc.a(libm_a-s_frexp.o)
                              E:/Tools/Develop/ToolsKits/ARM/arm-gnu-toolchain_v13_3/bin/../lib/gcc/arm-none-eabi/13.3.1/thumb/v7e-m+fp/hard\libc.a(libc_a-vfprintf.o) (frexp)
E:/Tools/Develop/ToolsKits/ARM/arm-gnu-toolchain_v13_3/bin/../lib/gcc/arm-none-eabi/13.3.1/thumb/v7e-m+fp/hard\libc.a(libc_a-__atexit.o)
                              E:/Tools/Develop/ToolsKits/ARM/arm-gnu-toolchain_v13_3/bin/../lib/gcc/arm-none-eabi/13.3.1/thumb/v7e-m+fp/hard\libc.a(libc_a-atexit.o) (__register_exitproc)
E:/Tools/Develop/ToolsKits/ARM/arm-gnu-toolchain_v13_3/bin/../lib/gcc/arm-none-eabi/13.3.1/thumb/v7e-m+fp/hard\libc.a(libc_a-dtoa.o)
                              E:/Tools/Develop/ToolsKits/ARM/arm-gnu-toolchain_v13_3/bin/../lib/gcc/arm-none-eabi/13.3.1/thumb/v7e-m+fp/hard\libc.a(libc_a-vfprintf.o) (_dtoa_r)
E:/Tools/Develop/ToolsKits/ARM/arm-gnu-toolchain_v13_3/bin/../lib/gcc/arm-none-eabi/13.3.1/thumb/v7e-m+fp/hard\libc.a(libc_a-getenv_r.o)
                              E:/Tools/Develop/ToolsKits/ARM/arm-gnu-toolchain_v13_3/bin/../lib/gcc/arm-none-eabi/13.3.1/thumb/v7e-m+fp/hard\libc.a(libc_a-locale.o) (_getenv_r)
E:/Tools/Develop/ToolsKits/ARM/arm-gnu-toolchain_v13_3/bin/../lib/gcc/arm-none-eabi/13.3.1/thumb/v7e-m+fp/hard\libc.a(libc_a-mbtowc_r.o)
                              E:/Tools/Develop/ToolsKits/ARM/arm-gnu-toolchain_v13_3/bin/../lib/gcc/arm-none-eabi/13.3.1/thumb/v7e-m+fp/hard\libc.a(libc_a-locale.o) (__ascii_mbtowc)
E:/Tools/Develop/ToolsKits/ARM/arm-gnu-toolchain_v13_3/bin/../lib/gcc/arm-none-eabi/13.3.1/thumb/v7e-m+fp/hard\libc.a(libc_a-mprec.o)
                              E:/Tools/Develop/ToolsKits/ARM/arm-gnu-toolchain_v13_3/bin/../lib/gcc/arm-none-eabi/13.3.1/thumb/v7e-m+fp/hard\libc.a(libc_a-dtoa.o) (_Balloc)
E:/Tools/Develop/ToolsKits/ARM/arm-gnu-toolchain_v13_3/bin/../lib/gcc/arm-none-eabi/13.3.1/thumb/v7e-m+fp/hard\libc.a(libc_a-reallocr.o)
                              E:/Tools/Develop/ToolsKits/ARM/arm-gnu-toolchain_v13_3/bin/../lib/gcc/arm-none-eabi/13.3.1/thumb/v7e-m+fp/hard\libc.a(libc_a-fvwrite.o) (_realloc_r)
E:/Tools/Develop/ToolsKits/ARM/arm-gnu-toolchain_v13_3/bin/../lib/gcc/arm-none-eabi/13.3.1/thumb/v7e-m+fp/hard\libc.a(libc_a-strtol.o)
                              E:/Tools/Develop/ToolsKits/ARM/arm-gnu-toolchain_v13_3/bin/../lib/gcc/arm-none-eabi/13.3.1/thumb/v7e-m+fp/hard\libc.a(libc_a-locale.o) (strtol)
E:/Tools/Develop/ToolsKits/ARM/arm-gnu-toolchain_v13_3/bin/../lib/gcc/arm-none-eabi/13.3.1/thumb/v7e-m+fp/hard\libc.a(libc_a-wctomb_r.o)
                              E:/Tools/Develop/ToolsKits/ARM/arm-gnu-toolchain_v13_3/bin/../lib/gcc/arm-none-eabi/13.3.1/thumb/v7e-m+fp/hard\libc.a(libc_a-locale.o) (__ascii_wctomb)
E:/Tools/Develop/ToolsKits/ARM/arm-gnu-toolchain_v13_3/bin/../lib/gcc/arm-none-eabi/13.3.1/thumb/v7e-m+fp/hard\libc.a(libc_a-wcrtomb.o)
                              E:/Tools/Develop/ToolsKits/ARM/arm-gnu-toolchain_v13_3/bin/../lib/gcc/arm-none-eabi/13.3.1/thumb/v7e-m+fp/hard\libc.a(libc_a-vfprintf.o) (_wcrtomb_r)
E:/Tools/Develop/ToolsKits/ARM/arm-gnu-toolchain_v13_3/bin/../lib/gcc/arm-none-eabi/13.3.1/thumb/v7e-m+fp/hard\libc.a(libc_a-wcsrtombs.o)
                              E:/Tools/Develop/ToolsKits/ARM/arm-gnu-toolchain_v13_3/bin/../lib/gcc/arm-none-eabi/13.3.1/thumb/v7e-m+fp/hard\libc.a(libc_a-vfprintf.o) (_wcsrtombs_r)
E:/Tools/Develop/ToolsKits/ARM/arm-gnu-toolchain_v13_3/bin/../lib/gcc/arm-none-eabi/13.3.1/thumb/v7e-m+fp/hard\libc.a(libc_a-ctype_.o)
                              E:/Tools/Develop/ToolsKits/ARM/arm-gnu-toolchain_v13_3/bin/../lib/gcc/arm-none-eabi/13.3.1/thumb/v7e-m+fp/hard\libc.a(libc_a-locale.o) (__set_ctype)
E:/Tools/Develop/ToolsKits/ARM/arm-gnu-toolchain_v13_3/bin/../lib/gcc/arm-none-eabi/13.3.1/thumb/v7e-m+fp/hard\libc.a(libc_a-makebuf.o)
                              E:/Tools/Develop/ToolsKits/ARM/arm-gnu-toolchain_v13_3/bin/../lib/gcc/arm-none-eabi/13.3.1/thumb/v7e-m+fp/hard\libc.a(libc_a-wsetup.o) (__smakebuf_r)
E:/Tools/Develop/ToolsKits/ARM/arm-gnu-toolchain_v13_3/bin/../lib/gcc/arm-none-eabi/13.3.1/thumb/v7e-m+fp/hard\libc.a(libc_a-strcasecmp.o)
                              E:/Tools/Develop/ToolsKits/ARM/arm-gnu-toolchain_v13_3/bin/../lib/gcc/arm-none-eabi/13.3.1/thumb/v7e-m+fp/hard\libc.a(libc_a-locale.o) (strcasecmp)
E:/Tools/Develop/ToolsKits/ARM/arm-gnu-toolchain_v13_3/bin/../lib/gcc/arm-none-eabi/13.3.1/thumb/v7e-m+fp/hard\libc.a(libc_a-strcat.o)
                              E:/Tools/Develop/ToolsKits/ARM/arm-gnu-toolchain_v13_3/bin/../lib/gcc/arm-none-eabi/13.3.1/thumb/v7e-m+fp/hard\libc.a(libc_a-locale.o) (strcat)
E:/Tools/Develop/ToolsKits/ARM/arm-gnu-toolchain_v13_3/bin/../lib/gcc/arm-none-eabi/13.3.1/thumb/v7e-m+fp/hard\libc.a(libc_a-strchr.o)
                              E:/Tools/Develop/ToolsKits/ARM/arm-gnu-toolchain_v13_3/bin/../lib/gcc/arm-none-eabi/13.3.1/thumb/v7e-m+fp/hard\libc.a(libc_a-locale.o) (strchr)
E:/Tools/Develop/ToolsKits/ARM/arm-gnu-toolchain_v13_3/bin/../lib/gcc/arm-none-eabi/13.3.1/thumb/v7e-m+fp/hard\libc.a(libc_a-strlcpy.o)
                              E:/Tools/Develop/ToolsKits/ARM/arm-gnu-toolchain_v13_3/bin/../lib/gcc/arm-none-eabi/13.3.1/thumb/v7e-m+fp/hard\libc.a(libc_a-locale.o) (strlcpy)
E:/Tools/Develop/ToolsKits/ARM/arm-gnu-toolchain_v13_3/bin/../lib/gcc/arm-none-eabi/13.3.1/thumb/v7e-m+fp/hard\libc.a(libc_a-strncasecmp.o)
                              E:/Tools/Develop/ToolsKits/ARM/arm-gnu-toolchain_v13_3/bin/../lib/gcc/arm-none-eabi/13.3.1/thumb/v7e-m+fp/hard\libc.a(libc_a-locale.o) (strncasecmp)
E:/Tools/Develop/ToolsKits/ARM/arm-gnu-toolchain_v13_3/bin/../lib/gcc/arm-none-eabi/13.3.1/thumb/v7e-m+fp/hard\libc.a(libc_a-strncmp.o)
                              E:/Tools/Develop/ToolsKits/ARM/arm-gnu-toolchain_v13_3/bin/../lib/gcc/arm-none-eabi/13.3.1/thumb/v7e-m+fp/hard\libc.a(libc_a-getenv_r.o) (strncmp)
E:/Tools/Develop/ToolsKits/ARM/arm-gnu-toolchain_v13_3/bin/../lib/gcc/arm-none-eabi/13.3.1/thumb/v7e-m+fp/hard\libc.a(libc_a-fstatr.o)
                              E:/Tools/Develop/ToolsKits/ARM/arm-gnu-toolchain_v13_3/bin/../lib/gcc/arm-none-eabi/13.3.1/thumb/v7e-m+fp/hard\libc.a(libc_a-makebuf.o) (_fstat_r)
E:/Tools/Develop/ToolsKits/ARM/arm-gnu-toolchain_v13_3/bin/../lib/gcc/arm-none-eabi/13.3.1/thumb/v7e-m+fp/hard\libc.a(libc_a-isattyr.o)
                              E:/Tools/Develop/ToolsKits/ARM/arm-gnu-toolchain_v13_3/bin/../lib/gcc/arm-none-eabi/13.3.1/thumb/v7e-m+fp/hard\libc.a(libc_a-makebuf.o) (_isatty_r)
E:/Tools/Develop/ToolsKits/ARM/arm-gnu-toolchain_v13_3/bin/../lib/gcc/arm-none-eabi/13.3.1/thumb/v7e-m+fp/hard\libc.a(libc_a-assert.o)
                              E:/Tools/Develop/ToolsKits/ARM/arm-gnu-toolchain_v13_3/bin/../lib/gcc/arm-none-eabi/13.3.1/thumb/v7e-m+fp/hard\libc.a(libc_a-dtoa.o) (__assert_func)
E:/Tools/Develop/ToolsKits/ARM/arm-gnu-toolchain_v13_3/bin/../lib/gcc/arm-none-eabi/13.3.1/thumb/v7e-m+fp/hard\libc.a(libc_a-callocr.o)
                              E:/Tools/Develop/ToolsKits/ARM/arm-gnu-toolchain_v13_3/bin/../lib/gcc/arm-none-eabi/13.3.1/thumb/v7e-m+fp/hard\libc.a(libc_a-mprec.o) (_calloc_r)
E:/Tools/Develop/ToolsKits/ARM/arm-gnu-toolchain_v13_3/bin/../lib/gcc/arm-none-eabi/13.3.1/thumb/v7e-m+fp/hard\libc.a(libc_a-envlock.o)
                              E:/Tools/Develop/ToolsKits/ARM/arm-gnu-toolchain_v13_3/bin/../lib/gcc/arm-none-eabi/13.3.1/thumb/v7e-m+fp/hard\libc.a(libc_a-getenv_r.o) (__env_lock)
E:/Tools/Develop/ToolsKits/ARM/arm-gnu-toolchain_v13_3/bin/../lib/gcc/arm-none-eabi/13.3.1/thumb/v7e-m+fp/hard\libc.a(libc_a-wcsnrtombs.o)
                              E:/Tools/Develop/ToolsKits/ARM/arm-gnu-toolchain_v13_3/bin/../lib/gcc/arm-none-eabi/13.3.1/thumb/v7e-m+fp/hard\libc.a(libc_a-wcsrtombs.o) (_wcsnrtombs_r)
E:/Tools/Develop/ToolsKits/ARM/arm-gnu-toolchain_v13_3/bin/../lib/gcc/arm-none-eabi/13.3.1/thumb/v7e-m+fp/hard\libc.a(libc_a-fiprintf.o)
                              E:/Tools/Develop/ToolsKits/ARM/arm-gnu-toolchain_v13_3/bin/../lib/gcc/arm-none-eabi/13.3.1/thumb/v7e-m+fp/hard\libc.a(libc_a-assert.o) (fiprintf)
E:/Tools/Develop/ToolsKits/ARM/arm-gnu-toolchain_v13_3/bin/../lib/gcc/arm-none-eabi/13.3.1/thumb/v7e-m+fp/hard\libc.a(libc_a-vfiprintf.o)
                              E:/Tools/Develop/ToolsKits/ARM/arm-gnu-toolchain_v13_3/bin/../lib/gcc/arm-none-eabi/13.3.1/thumb/v7e-m+fp/hard\libc.a(libc_a-fiprintf.o) (_vfiprintf_r)
E:/Tools/Develop/ToolsKits/ARM/arm-gnu-toolchain_v13_3/bin/../lib/gcc/arm-none-eabi/13.3.1/thumb/v7e-m+fp/hard\libgcc.a(_arm_muldivdf3.o)
                              E:/Tools/Develop/ToolsKits/ARM/arm-gnu-toolchain_v13_3/bin/../lib/gcc/arm-none-eabi/13.3.1/thumb/v7e-m+fp/hard\libc.a(libc_a-dtoa.o) (__aeabi_ddiv)
E:/Tools/Develop/ToolsKits/ARM/arm-gnu-toolchain_v13_3/bin/../lib/gcc/arm-none-eabi/13.3.1/thumb/v7e-m+fp/hard\libgcc.a(_arm_cmpdf2.o)
                              E:/Tools/Develop/ToolsKits/ARM/arm-gnu-toolchain_v13_3/bin/../lib/gcc/arm-none-eabi/13.3.1/thumb/v7e-m+fp/hard\libc.a(libc_a-vfprintf.o) (__aeabi_dcmpeq)
E:/Tools/Develop/ToolsKits/ARM/arm-gnu-toolchain_v13_3/bin/../lib/gcc/arm-none-eabi/13.3.1/thumb/v7e-m+fp/hard\libgcc.a(_arm_unorddf2.o)
                              E:/Tools/Develop/ToolsKits/ARM/arm-gnu-toolchain_v13_3/bin/../lib/gcc/arm-none-eabi/13.3.1/thumb/v7e-m+fp/hard\libc.a(libc_a-vfprintf.o) (__aeabi_dcmpun)
E:/Tools/Develop/ToolsKits/ARM/arm-gnu-toolchain_v13_3/bin/../lib/gcc/arm-none-eabi/13.3.1/thumb/v7e-m+fp/hard\libgcc.a(_arm_fixdfsi.o)
                              E:/Tools/Develop/ToolsKits/ARM/arm-gnu-toolchain_v13_3/bin/../lib/gcc/arm-none-eabi/13.3.1/thumb/v7e-m+fp/hard\libc.a(libc_a-vfprintf.o) (__aeabi_d2iz)

Discarded input sections

 .text          0x00000000        0x0 E:/Tools/Develop/ToolsKits/ARM/arm-gnu-toolchain_v13_3/bin/../lib/gcc/arm-none-eabi/13.3.1/thumb/v7e-m+fp/hard/crti.o
 .data          0x00000000        0x0 E:/Tools/Develop/ToolsKits/ARM/arm-gnu-toolchain_v13_3/bin/../lib/gcc/arm-none-eabi/13.3.1/thumb/v7e-m+fp/hard/crti.o
 .bss           0x00000000        0x0 E:/Tools/Develop/ToolsKits/ARM/arm-gnu-toolchain_v13_3/bin/../lib/gcc/arm-none-eabi/13.3.1/thumb/v7e-m+fp/hard/crti.o
 .text          0x00000000        0x0 E:/Tools/Develop/ToolsKits/ARM/arm-gnu-toolchain_v13_3/bin/../lib/gcc/arm-none-eabi/13.3.1/thumb/v7e-m+fp/hard/crtbegin.o
 .data          0x00000000        0x0 E:/Tools/Develop/ToolsKits/ARM/arm-gnu-toolchain_v13_3/bin/../lib/gcc/arm-none-eabi/13.3.1/thumb/v7e-m+fp/hard/crtbegin.o
 .bss           0x00000000        0x0 E:/Tools/Develop/ToolsKits/ARM/arm-gnu-toolchain_v13_3/bin/../lib/gcc/arm-none-eabi/13.3.1/thumb/v7e-m+fp/hard/crtbegin.o
 .rodata.all_implied_fbits
                0x00000000       0x24 E:/Tools/Develop/ToolsKits/ARM/arm-gnu-toolchain_v13_3/bin/../lib/gcc/arm-none-eabi/13.3.1/thumb/v7e-m+fp/hard/crtbegin.o
 .data.__dso_handle
                0x00000000        0x4 E:/Tools/Develop/ToolsKits/ARM/arm-gnu-toolchain_v13_3/bin/../lib/gcc/arm-none-eabi/13.3.1/thumb/v7e-m+fp/hard/crtbegin.o
 .text          0x00000000       0x7c E:/Tools/Develop/ToolsKits/ARM/arm-gnu-toolchain_v13_3/bin/../lib/gcc/arm-none-eabi/13.3.1/thumb/v7e-m+fp/hard/crt0.o
 .data          0x00000000        0x0 E:/Tools/Develop/ToolsKits/ARM/arm-gnu-toolchain_v13_3/bin/../lib/gcc/arm-none-eabi/13.3.1/thumb/v7e-m+fp/hard/crt0.o
 .bss           0x00000000        0x0 E:/Tools/Develop/ToolsKits/ARM/arm-gnu-toolchain_v13_3/bin/../lib/gcc/arm-none-eabi/13.3.1/thumb/v7e-m+fp/hard/crt0.o
 .ARM.extab     0x00000000        0x0 E:/Tools/Develop/ToolsKits/ARM/arm-gnu-toolchain_v13_3/bin/../lib/gcc/arm-none-eabi/13.3.1/thumb/v7e-m+fp/hard/crt0.o
 .ARM.exidx     0x00000000       0x10 E:/Tools/Develop/ToolsKits/ARM/arm-gnu-toolchain_v13_3/bin/../lib/gcc/arm-none-eabi/13.3.1/thumb/v7e-m+fp/hard/crt0.o
 .debug_line_str
                0x00000000       0xd6 E:/Tools/Develop/ToolsKits/ARM/arm-gnu-toolchain_v13_3/bin/../lib/gcc/arm-none-eabi/13.3.1/thumb/v7e-m+fp/hard/crt0.o
 .ARM.attributes
                0x00000000       0x20 E:/Tools/Develop/ToolsKits/ARM/arm-gnu-toolchain_v13_3/bin/../lib/gcc/arm-none-eabi/13.3.1/thumb/v7e-m+fp/hard/crt0.o
 .group         0x00000000        0x8 CMakeFiles/Furina.elf.dir/Application/Base/ISR.cpp.obj
 .group         0x00000000        0x8 CMakeFiles/Furina.elf.dir/Application/Base/ISR.cpp.obj
 .text          0x00000000        0x0 CMakeFiles/Furina.elf.dir/Application/Base/ISR.cpp.obj
 .data          0x00000000        0x0 CMakeFiles/Furina.elf.dir/Application/Base/ISR.cpp.obj
 .bss           0x00000000        0x0 CMakeFiles/Furina.elf.dir/Application/Base/ISR.cpp.obj
 .text._Z8adc1_isrv
                0x00000000        0x4 CMakeFiles/Furina.elf.dir/Application/Base/ISR.cpp.obj
 .ARM.extab.text._Z8adc1_isrv
                0x00000000        0x0 CMakeFiles/Furina.elf.dir/Application/Base/ISR.cpp.obj
 .ARM.exidx.text._Z8adc1_isrv
                0x00000000        0x8 CMakeFiles/Furina.elf.dir/Application/Base/ISR.cpp.obj
 .text.HAL_TIM_PeriodElapsedCallback
                0x00000000        0x4 CMakeFiles/Furina.elf.dir/Application/Base/ISR.cpp.obj
 .ARM.extab.text.HAL_TIM_PeriodElapsedCallback
                0x00000000        0x0 CMakeFiles/Furina.elf.dir/Application/Base/ISR.cpp.obj
 .ARM.exidx.text.HAL_TIM_PeriodElapsedCallback
                0x00000000        0x8 CMakeFiles/Furina.elf.dir/Application/Base/ISR.cpp.obj
 .ARM.extab.text.EXTI0_IRQHandler
                0x00000000        0x0 CMakeFiles/Furina.elf.dir/Application/Base/ISR.cpp.obj
 .ARM.extab.text.DMA2_Stream6_IRQHandler
                0x00000000        0x0 CMakeFiles/Furina.elf.dir/Application/Base/ISR.cpp.obj
 .text          0x00000000       0x14 CMakeFiles/Furina.elf.dir/Core/startup_stm32f407vetx.s.obj
 .data          0x00000000        0x0 CMakeFiles/Furina.elf.dir/Core/startup_stm32f407vetx.s.obj
 .bss           0x00000000        0x0 CMakeFiles/Furina.elf.dir/Core/startup_stm32f407vetx.s.obj
 .text.Default_Handler
                0x00000000        0x2 CMakeFiles/Furina.elf.dir/Core/startup_stm32f407vetx.s.obj
 .text          0x00000000        0x0 CMakeFiles/Furina.elf.dir/Core/stm32f4xx_it.c.obj
 .data          0x00000000        0x0 CMakeFiles/Furina.elf.dir/Core/stm32f4xx_it.c.obj
 .bss           0x00000000        0x0 CMakeFiles/Furina.elf.dir/Core/stm32f4xx_it.c.obj
 .text.EXTI0_IRQHandler
                0x00000000        0x4 CMakeFiles/Furina.elf.dir/Core/stm32f4xx_it.c.obj
 .text.Default_Handler
                0x00000000        0x4 CMakeFiles/Furina.elf.dir/Core/stm32f4xx_it.c.obj
 .text.ADC_IRQHandler
                0x00000000        0x4 CMakeFiles/Furina.elf.dir/Core/stm32f4xx_it.c.obj
 .text.USART1_IRQHandler
                0x00000000        0x4 CMakeFiles/Furina.elf.dir/Core/stm32f4xx_it.c.obj
 .text          0x00000000        0x0 CMakeFiles/Furina.elf.dir/Core/syscalls.c.obj
 .data          0x00000000        0x0 CMakeFiles/Furina.elf.dir/Core/syscalls.c.obj
 .bss           0x00000000        0x0 CMakeFiles/Furina.elf.dir/Core/syscalls.c.obj
 .text.initialise_monitor_handles
                0x00000000        0x4 CMakeFiles/Furina.elf.dir/Core/syscalls.c.obj
 .text._write   0x00000000       0x1c CMakeFiles/Furina.elf.dir/Core/syscalls.c.obj
 .text._open    0x00000000        0xc CMakeFiles/Furina.elf.dir/Core/syscalls.c.obj
 .text._wait    0x00000000       0x10 CMakeFiles/Furina.elf.dir/Core/syscalls.c.obj
 .text._unlink  0x00000000       0x10 CMakeFiles/Furina.elf.dir/Core/syscalls.c.obj
 .text._times   0x00000000        0x8 CMakeFiles/Furina.elf.dir/Core/syscalls.c.obj
 .text._stat    0x00000000        0xc CMakeFiles/Furina.elf.dir/Core/syscalls.c.obj
 .text._link    0x00000000       0x10 CMakeFiles/Furina.elf.dir/Core/syscalls.c.obj
 .text._fork    0x00000000       0x10 CMakeFiles/Furina.elf.dir/Core/syscalls.c.obj
 .text._execve  0x00000000       0x10 CMakeFiles/Furina.elf.dir/Core/syscalls.c.obj
 .data.environ  0x00000000        0x4 CMakeFiles/Furina.elf.dir/Core/syscalls.c.obj
 .bss.__env     0x00000000        0x4 CMakeFiles/Furina.elf.dir/Core/syscalls.c.obj
 .text          0x00000000        0x0 CMakeFiles/Furina.elf.dir/Core/sysmem.c.obj
 .data          0x00000000        0x0 CMakeFiles/Furina.elf.dir/Core/sysmem.c.obj
 .bss           0x00000000        0x0 CMakeFiles/Furina.elf.dir/Core/sysmem.c.obj
 .text          0x00000000        0x0 CMakeFiles/Furina.elf.dir/Core/system_stm32f4xx.c.obj
 .data          0x00000000        0x0 CMakeFiles/Furina.elf.dir/Core/system_stm32f4xx.c.obj
 .bss           0x00000000        0x0 CMakeFiles/Furina.elf.dir/Core/system_stm32f4xx.c.obj
 .text.SystemCoreClockUpdate
                0x00000000       0x70 CMakeFiles/Furina.elf.dir/Core/system_stm32f4xx.c.obj
 .text          0x00000000        0x0 build/lib/liblibapp.a(baseInit.cpp.obj)
 .data          0x00000000        0x0 build/lib/liblibapp.a(baseInit.cpp.obj)
 .bss           0x00000000        0x0 build/lib/liblibapp.a(baseInit.cpp.obj)
 .ARM.extab.text._Z8BaseInitv
                0x00000000        0x0 build/lib/liblibapp.a(baseInit.cpp.obj)
 .ARM.extab.text.HAL_MspInit
                0x00000000        0x0 build/lib/liblibapp.a(baseInit.cpp.obj)
 .ARM.extab.text.HAL_InitTick
                0x00000000        0x0 build/lib/liblibapp.a(baseInit.cpp.obj)
 .ARM.extab.text.TIM7_IRQHandler
                0x00000000        0x0 build/lib/liblibapp.a(baseInit.cpp.obj)
 .text          0x00000000        0x0 build/lib/liblibapp.a(main.cpp.obj)
 .data          0x00000000        0x0 build/lib/liblibapp.a(main.cpp.obj)
 .bss           0x00000000        0x0 build/lib/liblibapp.a(main.cpp.obj)
 .ARM.extab.text._Z18background_handlerv
                0x00000000        0x0 build/lib/liblibapp.a(main.cpp.obj)
 .group         0x00000000        0x8 build/lib/liblibapp.a(app.cpp.obj)
 .text          0x00000000        0x0 build/lib/liblibapp.a(app.cpp.obj)
 .data          0x00000000        0x0 build/lib/liblibapp.a(app.cpp.obj)
 .bss           0x00000000        0x0 build/lib/liblibapp.a(app.cpp.obj)
 .ARM.extab.text._Z8adc1_isrv
                0x00000000        0x0 build/lib/liblibapp.a(app.cpp.obj)
 .bss._ZN3Key4codeE
                0x00000000        0x1 build/lib/liblibapp.a(app.cpp.obj)
 .text          0x00000000        0x0 build/lib/liblibbsp.a(CPU_RunTime.c.obj)
 .data          0x00000000        0x0 build/lib/liblibbsp.a(CPU_RunTime.c.obj)
 .bss           0x00000000        0x0 build/lib/liblibbsp.a(CPU_RunTime.c.obj)
 .text          0x00000000        0x0 build/lib/liblibbsp.a(adc.c.obj)
 .data          0x00000000        0x0 build/lib/liblibbsp.a(adc.c.obj)
 .bss           0x00000000        0x0 build/lib/liblibbsp.a(adc.c.obj)
 .text          0x00000000        0x0 build/lib/liblibbsp.a(fsmc.c.obj)
 .data          0x00000000        0x0 build/lib/liblibbsp.a(fsmc.c.obj)
 .bss           0x00000000        0x0 build/lib/liblibbsp.a(fsmc.c.obj)
 .text          0x00000000        0x0 build/lib/liblibbsp.a(key_exit.c.obj)
 .data          0x00000000        0x0 build/lib/liblibbsp.a(key_exit.c.obj)
 .bss           0x00000000        0x0 build/lib/liblibbsp.a(key_exit.c.obj)
 .text          0x00000000        0x0 build/lib/liblibbsp.a(lcd.c.obj)
 .data          0x00000000        0x0 build/lib/liblibbsp.a(lcd.c.obj)
 .bss           0x00000000        0x0 build/lib/liblibbsp.a(lcd.c.obj)
 .text.lcd_flush
                0x00000000       0x68 build/lib/liblibbsp.a(lcd.c.obj)
 .text          0x00000000        0x0 build/lib/liblibbsp.a(timer.c.obj)
 .data          0x00000000        0x0 build/lib/liblibbsp.a(timer.c.obj)
 .bss           0x00000000        0x0 build/lib/liblibbsp.a(timer.c.obj)
 .text.timer6_init
                0x00000000       0x70 build/lib/liblibbsp.a(timer.c.obj)
 .text          0x00000000        0x0 build/lib/liblibbsp.a(usart.c.obj)
 .data          0x00000000        0x0 build/lib/liblibbsp.a(usart.c.obj)
 .bss           0x00000000        0x0 build/lib/liblibbsp.a(usart.c.obj)
 .text          0x00000000        0x0 build/lib/liblibdrivers.a(stm32f4xx_hal.c.obj)
 .data          0x00000000        0x0 build/lib/liblibdrivers.a(stm32f4xx_hal.c.obj)
 .bss           0x00000000        0x0 build/lib/liblibdrivers.a(stm32f4xx_hal.c.obj)
 .text.HAL_MspInit
                0x00000000        0x4 build/lib/liblibdrivers.a(stm32f4xx_hal.c.obj)
 .text.HAL_MspDeInit
                0x00000000        0x4 build/lib/liblibdrivers.a(stm32f4xx_hal.c.obj)
 .text.HAL_DeInit
                0x00000000       0x3c build/lib/liblibdrivers.a(stm32f4xx_hal.c.obj)
 .text.HAL_InitTick
                0x00000000       0x48 build/lib/liblibdrivers.a(stm32f4xx_hal.c.obj)
 .text.HAL_GetTickPrio
                0x00000000        0xc build/lib/liblibdrivers.a(stm32f4xx_hal.c.obj)
 .text.HAL_SetTickFreq
                0x00000000       0x28 build/lib/liblibdrivers.a(stm32f4xx_hal.c.obj)
 .text.HAL_GetTickFreq
                0x00000000        0xc build/lib/liblibdrivers.a(stm32f4xx_hal.c.obj)
 .text.HAL_SuspendTick
                0x00000000       0x10 build/lib/liblibdrivers.a(stm32f4xx_hal.c.obj)
 .text.HAL_ResumeTick
                0x00000000       0x10 build/lib/liblibdrivers.a(stm32f4xx_hal.c.obj)
 .text.HAL_GetHalVersion
                0x00000000        0x8 build/lib/liblibdrivers.a(stm32f4xx_hal.c.obj)
 .text.HAL_GetREVID
                0x00000000        0xc build/lib/liblibdrivers.a(stm32f4xx_hal.c.obj)
 .text.HAL_GetDEVID
                0x00000000       0x10 build/lib/liblibdrivers.a(stm32f4xx_hal.c.obj)
 .text.HAL_DBGMCU_EnableDBGSleepMode
                0x00000000       0x10 build/lib/liblibdrivers.a(stm32f4xx_hal.c.obj)
 .text.HAL_DBGMCU_DisableDBGSleepMode
                0x00000000       0x10 build/lib/liblibdrivers.a(stm32f4xx_hal.c.obj)
 .text.HAL_DBGMCU_EnableDBGStopMode
                0x00000000       0x10 build/lib/liblibdrivers.a(stm32f4xx_hal.c.obj)
 .text.HAL_DBGMCU_DisableDBGStopMode
                0x00000000       0x10 build/lib/liblibdrivers.a(stm32f4xx_hal.c.obj)
 .text.HAL_DBGMCU_EnableDBGStandbyMode
                0x00000000       0x10 build/lib/liblibdrivers.a(stm32f4xx_hal.c.obj)
 .text.HAL_DBGMCU_DisableDBGStandbyMode
                0x00000000       0x10 build/lib/liblibdrivers.a(stm32f4xx_hal.c.obj)
 .text.HAL_EnableCompensationCell
                0x00000000       0x10 build/lib/liblibdrivers.a(stm32f4xx_hal.c.obj)
 .text.HAL_DisableCompensationCell
                0x00000000       0x10 build/lib/liblibdrivers.a(stm32f4xx_hal.c.obj)
 .text.HAL_GetUIDw0
                0x00000000        0xc build/lib/liblibdrivers.a(stm32f4xx_hal.c.obj)
 .text.HAL_GetUIDw1
                0x00000000        0xc build/lib/liblibdrivers.a(stm32f4xx_hal.c.obj)
 .text.HAL_GetUIDw2
                0x00000000        0xc build/lib/liblibdrivers.a(stm32f4xx_hal.c.obj)
 .text          0x00000000        0x0 build/lib/liblibdrivers.a(stm32f4xx_hal_adc.c.obj)
 .data          0x00000000        0x0 build/lib/liblibdrivers.a(stm32f4xx_hal_adc.c.obj)
 .bss           0x00000000        0x0 build/lib/liblibdrivers.a(stm32f4xx_hal_adc.c.obj)
 .text.HAL_ADC_MspDeInit
                0x00000000        0x4 build/lib/liblibdrivers.a(stm32f4xx_hal_adc.c.obj)
 .text.HAL_ADC_DeInit
                0x00000000       0x3c build/lib/liblibdrivers.a(stm32f4xx_hal_adc.c.obj)
 .text.HAL_ADC_Start
                0x00000000      0x108 build/lib/liblibdrivers.a(stm32f4xx_hal_adc.c.obj)
 .text.HAL_ADC_Stop
                0x00000000       0x38 build/lib/liblibdrivers.a(stm32f4xx_hal_adc.c.obj)
 .text.HAL_ADC_PollForConversion
                0x00000000       0xb4 build/lib/liblibdrivers.a(stm32f4xx_hal_adc.c.obj)
 .text.HAL_ADC_PollForEvent
                0x00000000       0x88 build/lib/liblibdrivers.a(stm32f4xx_hal_adc.c.obj)
 .text.HAL_ADC_Start_DMA
                0x00000000      0x15c build/lib/liblibdrivers.a(stm32f4xx_hal_adc.c.obj)
 .text.HAL_ADC_Stop_DMA
                0x00000000       0x7c build/lib/liblibdrivers.a(stm32f4xx_hal_adc.c.obj)
 .text.HAL_ADC_ConvCpltCallback
                0x00000000        0x4 build/lib/liblibdrivers.a(stm32f4xx_hal_adc.c.obj)
 .text.HAL_ADC_ConvHalfCpltCallback
                0x00000000        0x4 build/lib/liblibdrivers.a(stm32f4xx_hal_adc.c.obj)
 .text.ADC_DMAHalfConvCplt
                0x00000000        0xc build/lib/liblibdrivers.a(stm32f4xx_hal_adc.c.obj)
 .text.ADC_DMAError
                0x00000000       0x18 build/lib/liblibdrivers.a(stm32f4xx_hal_adc.c.obj)
 .text.ADC_DMAConvCplt
                0x00000000       0x6c build/lib/liblibdrivers.a(stm32f4xx_hal_adc.c.obj)
 .text.HAL_ADC_AnalogWDGConfig
                0x00000000       0x68 build/lib/liblibdrivers.a(stm32f4xx_hal_adc.c.obj)
 .text.HAL_ADC_GetState
                0x00000000        0x4 build/lib/liblibdrivers.a(stm32f4xx_hal_adc.c.obj)
 .text.HAL_ADC_GetError
                0x00000000        0x4 build/lib/liblibdrivers.a(stm32f4xx_hal_adc.c.obj)
 .text          0x00000000        0x0 build/lib/liblibdrivers.a(stm32f4xx_hal_adc_ex.c.obj)
 .data          0x00000000        0x0 build/lib/liblibdrivers.a(stm32f4xx_hal_adc_ex.c.obj)
 .bss           0x00000000        0x0 build/lib/liblibdrivers.a(stm32f4xx_hal_adc_ex.c.obj)
 .text.ADC_MultiModeDMAError
                0x00000000       0x14 build/lib/liblibdrivers.a(stm32f4xx_hal_adc_ex.c.obj)
 .text.ADC_MultiModeDMAHalfConvCplt
                0x00000000        0x8 build/lib/liblibdrivers.a(stm32f4xx_hal_adc_ex.c.obj)
 .text.ADC_MultiModeDMAConvCplt
                0x00000000       0x58 build/lib/liblibdrivers.a(stm32f4xx_hal_adc_ex.c.obj)
 .text.HAL_ADCEx_InjectedStart
                0x00000000       0xe4 build/lib/liblibdrivers.a(stm32f4xx_hal_adc_ex.c.obj)
 .text.HAL_ADCEx_InjectedStart_IT
                0x00000000       0xec build/lib/liblibdrivers.a(stm32f4xx_hal_adc_ex.c.obj)
 .text.HAL_ADCEx_InjectedStop
                0x00000000       0x5c build/lib/liblibdrivers.a(stm32f4xx_hal_adc_ex.c.obj)
 .text.HAL_ADCEx_InjectedPollForConversion
                0x00000000       0xa0 build/lib/liblibdrivers.a(stm32f4xx_hal_adc_ex.c.obj)
 .text.HAL_ADCEx_InjectedStop_IT
                0x00000000       0x64 build/lib/liblibdrivers.a(stm32f4xx_hal_adc_ex.c.obj)
 .text.HAL_ADCEx_InjectedGetValue
                0x00000000       0x44 build/lib/liblibdrivers.a(stm32f4xx_hal_adc_ex.c.obj)
 .text.HAL_ADCEx_MultiModeStart_DMA
                0x00000000      0x118 build/lib/liblibdrivers.a(stm32f4xx_hal_adc_ex.c.obj)
 .text.HAL_ADCEx_MultiModeStop_DMA
                0x00000000       0x68 build/lib/liblibdrivers.a(stm32f4xx_hal_adc_ex.c.obj)
 .text.HAL_ADCEx_MultiModeGetValue
                0x00000000        0xc build/lib/liblibdrivers.a(stm32f4xx_hal_adc_ex.c.obj)
 .text.HAL_ADCEx_InjectedConfigChannel
                0x00000000      0x198 build/lib/liblibdrivers.a(stm32f4xx_hal_adc_ex.c.obj)
 .text.HAL_ADCEx_MultiModeConfigChannel
                0x00000000       0x58 build/lib/liblibdrivers.a(stm32f4xx_hal_adc_ex.c.obj)
 .text          0x00000000        0x0 build/lib/liblibdrivers.a(stm32f4xx_hal_cortex.c.obj)
 .data          0x00000000        0x0 build/lib/liblibdrivers.a(stm32f4xx_hal_cortex.c.obj)
 .bss           0x00000000        0x0 build/lib/liblibdrivers.a(stm32f4xx_hal_cortex.c.obj)
 .text.HAL_NVIC_DisableIRQ
                0x00000000       0x24 build/lib/liblibdrivers.a(stm32f4xx_hal_cortex.c.obj)
 .text.HAL_NVIC_SystemReset
                0x00000000       0x24 build/lib/liblibdrivers.a(stm32f4xx_hal_cortex.c.obj)
 .text.HAL_SYSTICK_Config
                0x00000000       0x34 build/lib/liblibdrivers.a(stm32f4xx_hal_cortex.c.obj)
 .text.HAL_MPU_Disable
                0x00000000       0x1c build/lib/liblibdrivers.a(stm32f4xx_hal_cortex.c.obj)
 .text.HAL_MPU_Enable
                0x00000000       0x20 build/lib/liblibdrivers.a(stm32f4xx_hal_cortex.c.obj)
 .text.HAL_MPU_EnableRegion
                0x00000000       0x18 build/lib/liblibdrivers.a(stm32f4xx_hal_cortex.c.obj)
 .text.HAL_MPU_DisableRegion
                0x00000000       0x18 build/lib/liblibdrivers.a(stm32f4xx_hal_cortex.c.obj)
 .text.HAL_MPU_ConfigRegion
                0x00000000       0x60 build/lib/liblibdrivers.a(stm32f4xx_hal_cortex.c.obj)
 .text.HAL_CORTEX_ClearEvent
                0x00000000        0x8 build/lib/liblibdrivers.a(stm32f4xx_hal_cortex.c.obj)
 .text.HAL_NVIC_GetPriorityGrouping
                0x00000000       0x10 build/lib/liblibdrivers.a(stm32f4xx_hal_cortex.c.obj)
 .text.HAL_NVIC_GetPriority
                0x00000000       0x68 build/lib/liblibdrivers.a(stm32f4xx_hal_cortex.c.obj)
 .text.HAL_NVIC_SetPendingIRQ
                0x00000000       0x1c build/lib/liblibdrivers.a(stm32f4xx_hal_cortex.c.obj)
 .text.HAL_NVIC_GetPendingIRQ
                0x00000000       0x24 build/lib/liblibdrivers.a(stm32f4xx_hal_cortex.c.obj)
 .text.HAL_NVIC_ClearPendingIRQ
                0x00000000       0x1c build/lib/liblibdrivers.a(stm32f4xx_hal_cortex.c.obj)
 .text.HAL_NVIC_GetActive
                0x00000000       0x24 build/lib/liblibdrivers.a(stm32f4xx_hal_cortex.c.obj)
 .text.HAL_SYSTICK_CLKSourceConfig
                0x00000000       0x18 build/lib/liblibdrivers.a(stm32f4xx_hal_cortex.c.obj)
 .text.HAL_SYSTICK_Callback
                0x00000000        0x4 build/lib/liblibdrivers.a(stm32f4xx_hal_cortex.c.obj)
 .text.HAL_SYSTICK_IRQHandler
                0x00000000        0x8 build/lib/liblibdrivers.a(stm32f4xx_hal_cortex.c.obj)
 .text          0x00000000        0x0 build/lib/liblibdrivers.a(stm32f4xx_hal_dma.c.obj)
 .data          0x00000000        0x0 build/lib/liblibdrivers.a(stm32f4xx_hal_dma.c.obj)
 .bss           0x00000000        0x0 build/lib/liblibdrivers.a(stm32f4xx_hal_dma.c.obj)
 .text.HAL_DMA_DeInit
                0x00000000       0x7c build/lib/liblibdrivers.a(stm32f4xx_hal_dma.c.obj)
 .text.HAL_DMA_Start
                0x00000000       0x58 build/lib/liblibdrivers.a(stm32f4xx_hal_dma.c.obj)
 .text.HAL_DMA_Start_IT
                0x00000000       0x78 build/lib/liblibdrivers.a(stm32f4xx_hal_dma.c.obj)
 .text.HAL_DMA_PollForTransfer
                0x00000000      0x180 build/lib/liblibdrivers.a(stm32f4xx_hal_dma.c.obj)
 .text.HAL_DMA_IRQHandler
                0x00000000      0x1ac build/lib/liblibdrivers.a(stm32f4xx_hal_dma.c.obj)
 .text.HAL_DMA_RegisterCallback
                0x00000000       0x50 build/lib/liblibdrivers.a(stm32f4xx_hal_dma.c.obj)
 .text.HAL_DMA_UnRegisterCallback
                0x00000000       0x70 build/lib/liblibdrivers.a(stm32f4xx_hal_dma.c.obj)
 .text.HAL_DMA_GetState
                0x00000000        0x8 build/lib/liblibdrivers.a(stm32f4xx_hal_dma.c.obj)
 .text.HAL_DMA_GetError
                0x00000000        0x4 build/lib/liblibdrivers.a(stm32f4xx_hal_dma.c.obj)
 .text          0x00000000        0x0 build/lib/liblibdrivers.a(stm32f4xx_hal_gpio.c.obj)
 .data          0x00000000        0x0 build/lib/liblibdrivers.a(stm32f4xx_hal_gpio.c.obj)
 .bss           0x00000000        0x0 build/lib/liblibdrivers.a(stm32f4xx_hal_gpio.c.obj)
 .text.HAL_GPIO_DeInit
                0x00000000      0x240 build/lib/liblibdrivers.a(stm32f4xx_hal_gpio.c.obj)
 .text.HAL_GPIO_ReadPin
                0x00000000        0xc build/lib/liblibdrivers.a(stm32f4xx_hal_gpio.c.obj)
 .text.HAL_GPIO_WritePin
                0x00000000        0x8 build/lib/liblibdrivers.a(stm32f4xx_hal_gpio.c.obj)
 .text.HAL_GPIO_TogglePin
                0x00000000       0x14 build/lib/liblibdrivers.a(stm32f4xx_hal_gpio.c.obj)
 .text.HAL_GPIO_LockPin
                0x00000000       0x2c build/lib/liblibdrivers.a(stm32f4xx_hal_gpio.c.obj)
 .text.HAL_GPIO_EXTI_Callback
                0x00000000        0x4 build/lib/liblibdrivers.a(stm32f4xx_hal_gpio.c.obj)
 .text.HAL_GPIO_EXTI_IRQHandler
                0x00000000       0x18 build/lib/liblibdrivers.a(stm32f4xx_hal_gpio.c.obj)
 .text          0x00000000        0x0 build/lib/liblibdrivers.a(stm32f4xx_hal_rcc.c.obj)
 .data          0x00000000        0x0 build/lib/liblibdrivers.a(stm32f4xx_hal_rcc.c.obj)
 .bss           0x00000000        0x0 build/lib/liblibdrivers.a(stm32f4xx_hal_rcc.c.obj)
 .text.HAL_RCC_DeInit
                0x00000000        0x4 build/lib/liblibdrivers.a(stm32f4xx_hal_rcc.c.obj)
 .text.HAL_RCC_MCOConfig
                0x00000000       0xa0 build/lib/liblibdrivers.a(stm32f4xx_hal_rcc.c.obj)
 .text.HAL_RCC_EnableCSS
                0x00000000        0xc build/lib/liblibdrivers.a(stm32f4xx_hal_rcc.c.obj)
 .text.HAL_RCC_DisableCSS
                0x00000000        0xc build/lib/liblibdrivers.a(stm32f4xx_hal_rcc.c.obj)
 .text.HAL_RCC_GetHCLKFreq
                0x00000000        0xc build/lib/liblibdrivers.a(stm32f4xx_hal_rcc.c.obj)
 .text.HAL_RCC_GetOscConfig
                0x00000000       0x8c build/lib/liblibdrivers.a(stm32f4xx_hal_rcc.c.obj)
 .text.HAL_RCC_CSSCallback
                0x00000000        0x4 build/lib/liblibdrivers.a(stm32f4xx_hal_rcc.c.obj)
 .text.HAL_RCC_NMI_IRQHandler
                0x00000000       0x1c build/lib/liblibdrivers.a(stm32f4xx_hal_rcc.c.obj)
 .text          0x00000000        0x0 build/lib/liblibdrivers.a(stm32f4xx_hal_sram.c.obj)
 .data          0x00000000        0x0 build/lib/liblibdrivers.a(stm32f4xx_hal_sram.c.obj)
 .bss           0x00000000        0x0 build/lib/liblibdrivers.a(stm32f4xx_hal_sram.c.obj)
 .text.HAL_SRAM_MspDeInit
                0x00000000        0x4 build/lib/liblibdrivers.a(stm32f4xx_hal_sram.c.obj)
 .text.HAL_SRAM_DeInit
                0x00000000       0x20 build/lib/liblibdrivers.a(stm32f4xx_hal_sram.c.obj)
 .text.HAL_SRAM_DMA_XferCpltCallback
                0x00000000        0x4 build/lib/liblibdrivers.a(stm32f4xx_hal_sram.c.obj)
 .text.SRAM_DMACpltProt
                0x00000000       0x1c build/lib/liblibdrivers.a(stm32f4xx_hal_sram.c.obj)
 .text.SRAM_DMACplt
                0x00000000       0x1c build/lib/liblibdrivers.a(stm32f4xx_hal_sram.c.obj)
 .text.HAL_SRAM_DMA_XferErrorCallback
                0x00000000        0x4 build/lib/liblibdrivers.a(stm32f4xx_hal_sram.c.obj)
 .text.SRAM_DMAError
                0x00000000       0x1c build/lib/liblibdrivers.a(stm32f4xx_hal_sram.c.obj)
 .text.HAL_SRAM_Read_8b
                0x00000000       0x4c build/lib/liblibdrivers.a(stm32f4xx_hal_sram.c.obj)
 .text.HAL_SRAM_Write_8b
                0x00000000       0x50 build/lib/liblibdrivers.a(stm32f4xx_hal_sram.c.obj)
 .text.HAL_SRAM_Read_16b
                0x00000000       0x6c build/lib/liblibdrivers.a(stm32f4xx_hal_sram.c.obj)
 .text.HAL_SRAM_Write_16b
                0x00000000       0x74 build/lib/liblibdrivers.a(stm32f4xx_hal_sram.c.obj)
 .text.HAL_SRAM_Read_32b
                0x00000000       0x44 build/lib/liblibdrivers.a(stm32f4xx_hal_sram.c.obj)
 .text.HAL_SRAM_Write_32b
                0x00000000       0x48 build/lib/liblibdrivers.a(stm32f4xx_hal_sram.c.obj)
 .text.HAL_SRAM_Read_DMA
                0x00000000       0x70 build/lib/liblibdrivers.a(stm32f4xx_hal_sram.c.obj)
 .text.HAL_SRAM_Write_DMA
                0x00000000       0x4c build/lib/liblibdrivers.a(stm32f4xx_hal_sram.c.obj)
 .text.HAL_SRAM_WriteOperation_Enable
                0x00000000       0x40 build/lib/liblibdrivers.a(stm32f4xx_hal_sram.c.obj)
 .text.HAL_SRAM_WriteOperation_Disable
                0x00000000       0x40 build/lib/liblibdrivers.a(stm32f4xx_hal_sram.c.obj)
 .text.HAL_SRAM_GetState
                0x00000000        0x8 build/lib/liblibdrivers.a(stm32f4xx_hal_sram.c.obj)
 .text          0x00000000        0x0 build/lib/liblibdrivers.a(stm32f4xx_hal_tim.c.obj)
 .data          0x00000000        0x0 build/lib/liblibdrivers.a(stm32f4xx_hal_tim.c.obj)
 .bss           0x00000000        0x0 build/lib/liblibdrivers.a(stm32f4xx_hal_tim.c.obj)
 .text.HAL_TIM_Base_MspDeInit
                0x00000000        0x4 build/lib/liblibdrivers.a(stm32f4xx_hal_tim.c.obj)
 .text.HAL_TIM_Base_DeInit
                0x00000000       0x60 build/lib/liblibdrivers.a(stm32f4xx_hal_tim.c.obj)
 .text.HAL_TIM_Base_Stop_IT
                0x00000000       0x30 build/lib/liblibdrivers.a(stm32f4xx_hal_tim.c.obj)
 .text.HAL_TIM_Base_Start_DMA
                0x00000000       0xb0 build/lib/liblibdrivers.a(stm32f4xx_hal_tim.c.obj)
 .text.HAL_TIM_Base_Stop_DMA
                0x00000000       0x3c build/lib/liblibdrivers.a(stm32f4xx_hal_tim.c.obj)
 .text.HAL_TIM_OC_MspInit
                0x00000000        0x4 build/lib/liblibdrivers.a(stm32f4xx_hal_tim.c.obj)
 .text.HAL_TIM_OC_Init
                0x00000000      0x130 build/lib/liblibdrivers.a(stm32f4xx_hal_tim.c.obj)
 .text.HAL_TIM_OC_MspDeInit
                0x00000000        0x4 build/lib/liblibdrivers.a(stm32f4xx_hal_tim.c.obj)
 .text.HAL_TIM_OC_DeInit
                0x00000000       0x60 build/lib/liblibdrivers.a(stm32f4xx_hal_tim.c.obj)
 .text.HAL_TIM_OC_Start
                0x00000000       0xd0 build/lib/liblibdrivers.a(stm32f4xx_hal_tim.c.obj)
 .text.HAL_TIM_OC_Stop
                0x00000000       0xa0 build/lib/liblibdrivers.a(stm32f4xx_hal_tim.c.obj)
 .text.HAL_TIM_OC_Start_IT
                0x00000000       0xf4 build/lib/liblibdrivers.a(stm32f4xx_hal_tim.c.obj)
 .text.HAL_TIM_OC_Stop_IT
                0x00000000       0xd8 build/lib/liblibdrivers.a(stm32f4xx_hal_tim.c.obj)
 .text.HAL_TIM_OC_Start_DMA
                0x00000000      0x1bc build/lib/liblibdrivers.a(stm32f4xx_hal_tim.c.obj)
 .text.HAL_TIM_OC_Stop_DMA
                0x00000000       0xe8 build/lib/liblibdrivers.a(stm32f4xx_hal_tim.c.obj)
 .text.HAL_TIM_PWM_MspInit
                0x00000000        0x4 build/lib/liblibdrivers.a(stm32f4xx_hal_tim.c.obj)
 .text.HAL_TIM_PWM_Init
                0x00000000      0x130 build/lib/liblibdrivers.a(stm32f4xx_hal_tim.c.obj)
 .text.HAL_TIM_PWM_MspDeInit
                0x00000000        0x4 build/lib/liblibdrivers.a(stm32f4xx_hal_tim.c.obj)
 .text.HAL_TIM_PWM_DeInit
                0x00000000       0x60 build/lib/liblibdrivers.a(stm32f4xx_hal_tim.c.obj)
 .text.HAL_TIM_PWM_Start
                0x00000000       0xd0 build/lib/liblibdrivers.a(stm32f4xx_hal_tim.c.obj)
 .text.HAL_TIM_PWM_Stop
                0x00000000       0xa0 build/lib/liblibdrivers.a(stm32f4xx_hal_tim.c.obj)
 .text.HAL_TIM_PWM_Start_IT
                0x00000000       0xf4 build/lib/liblibdrivers.a(stm32f4xx_hal_tim.c.obj)
 .text.HAL_TIM_PWM_Stop_IT
                0x00000000       0xd8 build/lib/liblibdrivers.a(stm32f4xx_hal_tim.c.obj)
 .text.HAL_TIM_PWM_Start_DMA
                0x00000000      0x1bc build/lib/liblibdrivers.a(stm32f4xx_hal_tim.c.obj)
 .text.HAL_TIM_PWM_Stop_DMA
                0x00000000       0xe8 build/lib/liblibdrivers.a(stm32f4xx_hal_tim.c.obj)
 .text.HAL_TIM_IC_MspInit
                0x00000000        0x4 build/lib/liblibdrivers.a(stm32f4xx_hal_tim.c.obj)
 .text.HAL_TIM_IC_Init
                0x00000000      0x130 build/lib/liblibdrivers.a(stm32f4xx_hal_tim.c.obj)
 .text.HAL_TIM_IC_MspDeInit
                0x00000000        0x4 build/lib/liblibdrivers.a(stm32f4xx_hal_tim.c.obj)
 .text.HAL_TIM_IC_DeInit
                0x00000000       0x60 build/lib/liblibdrivers.a(stm32f4xx_hal_tim.c.obj)
 .text.HAL_TIM_IC_Start
                0x00000000      0x110 build/lib/liblibdrivers.a(stm32f4xx_hal_tim.c.obj)
 .text.HAL_TIM_IC_Stop
                0x00000000       0x80 build/lib/liblibdrivers.a(stm32f4xx_hal_tim.c.obj)
 .text.HAL_TIM_IC_Start_IT
                0x00000000      0x11c build/lib/liblibdrivers.a(stm32f4xx_hal_tim.c.obj)
 .text.HAL_TIM_IC_Stop_IT
                0x00000000      0x128 build/lib/liblibdrivers.a(stm32f4xx_hal_tim.c.obj)
 .text.HAL_TIM_IC_Start_DMA
                0x00000000      0x23c build/lib/liblibdrivers.a(stm32f4xx_hal_tim.c.obj)
 .text.HAL_TIM_IC_Stop_DMA
                0x00000000      0x114 build/lib/liblibdrivers.a(stm32f4xx_hal_tim.c.obj)
 .text.HAL_TIM_OnePulse_MspInit
                0x00000000        0x4 build/lib/liblibdrivers.a(stm32f4xx_hal_tim.c.obj)
 .text.HAL_TIM_OnePulse_Init
                0x00000000      0x130 build/lib/liblibdrivers.a(stm32f4xx_hal_tim.c.obj)
 .text.HAL_TIM_OnePulse_MspDeInit
                0x00000000        0x4 build/lib/liblibdrivers.a(stm32f4xx_hal_tim.c.obj)
 .text.HAL_TIM_OnePulse_DeInit
                0x00000000       0x50 build/lib/liblibdrivers.a(stm32f4xx_hal_tim.c.obj)
 .text.HAL_TIM_OnePulse_Start
                0x00000000       0x94 build/lib/liblibdrivers.a(stm32f4xx_hal_tim.c.obj)
 .text.HAL_TIM_OnePulse_Stop
                0x00000000       0x80 build/lib/liblibdrivers.a(stm32f4xx_hal_tim.c.obj)
 .text.HAL_TIM_OnePulse_Start_IT
                0x00000000       0xa4 build/lib/liblibdrivers.a(stm32f4xx_hal_tim.c.obj)
 .text.HAL_TIM_OnePulse_Stop_IT
                0x00000000       0x90 build/lib/liblibdrivers.a(stm32f4xx_hal_tim.c.obj)
 .text.HAL_TIM_Encoder_MspInit
                0x00000000        0x4 build/lib/liblibdrivers.a(stm32f4xx_hal_tim.c.obj)
 .text.HAL_TIM_Encoder_Init
                0x00000000      0x180 build/lib/liblibdrivers.a(stm32f4xx_hal_tim.c.obj)
 .text.HAL_TIM_Encoder_MspDeInit
                0x00000000        0x4 build/lib/liblibdrivers.a(stm32f4xx_hal_tim.c.obj)
 .text.HAL_TIM_Encoder_DeInit
                0x00000000       0x50 build/lib/liblibdrivers.a(stm32f4xx_hal_tim.c.obj)
 .text.HAL_TIM_Encoder_Start
                0x00000000       0xc4 build/lib/liblibdrivers.a(stm32f4xx_hal_tim.c.obj)
 .text.HAL_TIM_Encoder_Stop
                0x00000000       0xc0 build/lib/liblibdrivers.a(stm32f4xx_hal_tim.c.obj)
 .text.HAL_TIM_Encoder_Start_IT
                0x00000000       0xf0 build/lib/liblibdrivers.a(stm32f4xx_hal_tim.c.obj)
 .text.HAL_TIM_Encoder_Stop_IT
                0x00000000       0xd8 build/lib/liblibdrivers.a(stm32f4xx_hal_tim.c.obj)
 .text.HAL_TIM_Encoder_Start_DMA
                0x00000000      0x1c4 build/lib/liblibdrivers.a(stm32f4xx_hal_tim.c.obj)
 .text.HAL_TIM_Encoder_Stop_DMA
                0x00000000      0x100 build/lib/liblibdrivers.a(stm32f4xx_hal_tim.c.obj)
 .text.HAL_TIM_OC_ConfigChannel
                0x00000000      0x19c build/lib/liblibdrivers.a(stm32f4xx_hal_tim.c.obj)
 .text.HAL_TIM_IC_ConfigChannel
                0x00000000      0x194 build/lib/liblibdrivers.a(stm32f4xx_hal_tim.c.obj)
 .text.HAL_TIM_PWM_ConfigChannel
                0x00000000      0x20c build/lib/liblibdrivers.a(stm32f4xx_hal_tim.c.obj)
 .text.HAL_TIM_OnePulse_ConfigChannel
                0x00000000      0x1f4 build/lib/liblibdrivers.a(stm32f4xx_hal_tim.c.obj)
 .text.HAL_TIM_DMABurst_WriteStart
                0x00000000      0x10c build/lib/liblibdrivers.a(stm32f4xx_hal_tim.c.obj)
 .text.HAL_TIM_DMABurst_MultiWriteStart
                0x00000000       0xec build/lib/liblibdrivers.a(stm32f4xx_hal_tim.c.obj)
 .text.HAL_TIM_DMABurst_WriteStop
                0x00000000       0x80 build/lib/liblibdrivers.a(stm32f4xx_hal_tim.c.obj)
 .text.HAL_TIM_DMABurst_ReadStart
                0x00000000      0x10c build/lib/liblibdrivers.a(stm32f4xx_hal_tim.c.obj)
 .text.HAL_TIM_DMABurst_MultiReadStart
                0x00000000       0xec build/lib/liblibdrivers.a(stm32f4xx_hal_tim.c.obj)
 .text.HAL_TIM_DMABurst_ReadStop
                0x00000000       0x80 build/lib/liblibdrivers.a(stm32f4xx_hal_tim.c.obj)
 .text.HAL_TIM_GenerateEvent
                0x00000000       0x2c build/lib/liblibdrivers.a(stm32f4xx_hal_tim.c.obj)
 .text.HAL_TIM_ConfigOCrefClear
                0x00000000       0xe0 build/lib/liblibdrivers.a(stm32f4xx_hal_tim.c.obj)
 .text.HAL_TIM_ConfigTI1Input
                0x00000000       0x10 build/lib/liblibdrivers.a(stm32f4xx_hal_tim.c.obj)
 .text.HAL_TIM_SlaveConfigSynchro
                0x00000000      0x10c build/lib/liblibdrivers.a(stm32f4xx_hal_tim.c.obj)
 .text.HAL_TIM_SlaveConfigSynchro_IT
                0x00000000      0x10c build/lib/liblibdrivers.a(stm32f4xx_hal_tim.c.obj)
 .text.HAL_TIM_ReadCapturedValue
                0x00000000       0x34 build/lib/liblibdrivers.a(stm32f4xx_hal_tim.c.obj)
 .text.HAL_TIM_PeriodElapsedCallback
                0x00000000        0x4 build/lib/liblibdrivers.a(stm32f4xx_hal_tim.c.obj)
 .text.TIM_DMAPeriodElapsedCplt
                0x00000000       0x18 build/lib/liblibdrivers.a(stm32f4xx_hal_tim.c.obj)
 .text.HAL_TIM_PeriodElapsedHalfCpltCallback
                0x00000000        0x4 build/lib/liblibdrivers.a(stm32f4xx_hal_tim.c.obj)
 .text.TIM_DMAPeriodElapsedHalfCplt
                0x00000000        0xc build/lib/liblibdrivers.a(stm32f4xx_hal_tim.c.obj)
 .text.HAL_TIM_OC_DelayElapsedCallback
                0x00000000        0x4 build/lib/liblibdrivers.a(stm32f4xx_hal_tim.c.obj)
 .text.HAL_TIM_IC_CaptureCallback
                0x00000000        0x4 build/lib/liblibdrivers.a(stm32f4xx_hal_tim.c.obj)
 .text.TIM_DMACaptureCplt
                0x00000000       0x94 build/lib/liblibdrivers.a(stm32f4xx_hal_tim.c.obj)
 .text.HAL_TIM_IC_CaptureHalfCpltCallback
                0x00000000        0x4 build/lib/liblibdrivers.a(stm32f4xx_hal_tim.c.obj)
 .text.TIM_DMACaptureHalfCplt
                0x00000000       0x60 build/lib/liblibdrivers.a(stm32f4xx_hal_tim.c.obj)
 .text.HAL_TIM_PWM_PulseFinishedCallback
                0x00000000        0x4 build/lib/liblibdrivers.a(stm32f4xx_hal_tim.c.obj)
 .text.TIM_DMADelayPulseCplt
                0x00000000       0x84 build/lib/liblibdrivers.a(stm32f4xx_hal_tim.c.obj)
 .text.HAL_TIM_PWM_PulseFinishedHalfCpltCallback
                0x00000000        0x4 build/lib/liblibdrivers.a(stm32f4xx_hal_tim.c.obj)
 .text.TIM_DMADelayPulseHalfCplt
                0x00000000       0x60 build/lib/liblibdrivers.a(stm32f4xx_hal_tim.c.obj)
 .text.HAL_TIM_TriggerCallback
                0x00000000        0x4 build/lib/liblibdrivers.a(stm32f4xx_hal_tim.c.obj)
 .text.HAL_TIM_IRQHandler
                0x00000000      0x138 build/lib/liblibdrivers.a(stm32f4xx_hal_tim.c.obj)
 .text.TIM_DMATriggerCplt
                0x00000000       0x18 build/lib/liblibdrivers.a(stm32f4xx_hal_tim.c.obj)
 .text.HAL_TIM_TriggerHalfCpltCallback
                0x00000000        0x4 build/lib/liblibdrivers.a(stm32f4xx_hal_tim.c.obj)
 .text.TIM_DMATriggerHalfCplt
                0x00000000        0xc build/lib/liblibdrivers.a(stm32f4xx_hal_tim.c.obj)
 .text.HAL_TIM_ErrorCallback
                0x00000000        0x4 build/lib/liblibdrivers.a(stm32f4xx_hal_tim.c.obj)
 .text.TIM_DMAError
                0x00000000       0x84 build/lib/liblibdrivers.a(stm32f4xx_hal_tim.c.obj)
 .text.HAL_TIM_Base_GetState
                0x00000000        0x8 build/lib/liblibdrivers.a(stm32f4xx_hal_tim.c.obj)
 .text.HAL_TIM_OC_GetState
                0x00000000        0x8 build/lib/liblibdrivers.a(stm32f4xx_hal_tim.c.obj)
 .text.HAL_TIM_PWM_GetState
                0x00000000        0x8 build/lib/liblibdrivers.a(stm32f4xx_hal_tim.c.obj)
 .text.HAL_TIM_IC_GetState
                0x00000000        0x8 build/lib/liblibdrivers.a(stm32f4xx_hal_tim.c.obj)
 .text.HAL_TIM_OnePulse_GetState
                0x00000000        0x8 build/lib/liblibdrivers.a(stm32f4xx_hal_tim.c.obj)
 .text.HAL_TIM_Encoder_GetState
                0x00000000        0x8 build/lib/liblibdrivers.a(stm32f4xx_hal_tim.c.obj)
 .text.HAL_TIM_GetActiveChannel
                0x00000000        0x4 build/lib/liblibdrivers.a(stm32f4xx_hal_tim.c.obj)
 .text.HAL_TIM_GetChannelState
                0x00000000       0x28 build/lib/liblibdrivers.a(stm32f4xx_hal_tim.c.obj)
 .text.HAL_TIM_DMABurstState
                0x00000000        0x8 build/lib/liblibdrivers.a(stm32f4xx_hal_tim.c.obj)
 .text.TIM_Base_SetConfig
                0x00000000       0xdc build/lib/liblibdrivers.a(stm32f4xx_hal_tim.c.obj)
 .text.TIM_OC2_SetConfig
                0x00000000       0x64 build/lib/liblibdrivers.a(stm32f4xx_hal_tim.c.obj)
 .text.TIM_TI1_SetConfig
                0x00000000       0x78 build/lib/liblibdrivers.a(stm32f4xx_hal_tim.c.obj)
 .text.TIM_ETR_SetConfig
                0x00000000       0x18 build/lib/liblibdrivers.a(stm32f4xx_hal_tim.c.obj)
 .text.TIM_CCxChannelCmd
                0x00000000       0x20 build/lib/liblibdrivers.a(stm32f4xx_hal_tim.c.obj)
 .text          0x00000000        0x0 build/lib/liblibdrivers.a(stm32f4xx_hal_tim_ex.c.obj)
 .data          0x00000000        0x0 build/lib/liblibdrivers.a(stm32f4xx_hal_tim_ex.c.obj)
 .bss           0x00000000        0x0 build/lib/liblibdrivers.a(stm32f4xx_hal_tim_ex.c.obj)
 .text.TIM_DMAErrorCCxN
                0x00000000       0x64 build/lib/liblibdrivers.a(stm32f4xx_hal_tim_ex.c.obj)
 .text.TIM_DMADelayPulseNCplt
                0x00000000       0x6c build/lib/liblibdrivers.a(stm32f4xx_hal_tim_ex.c.obj)
 .text.HAL_TIMEx_HallSensor_MspInit
                0x00000000        0x4 build/lib/liblibdrivers.a(stm32f4xx_hal_tim_ex.c.obj)
 .text.HAL_TIMEx_HallSensor_Init
                0x00000000       0xc8 build/lib/liblibdrivers.a(stm32f4xx_hal_tim_ex.c.obj)
 .text.HAL_TIMEx_HallSensor_MspDeInit
                0x00000000        0x4 build/lib/liblibdrivers.a(stm32f4xx_hal_tim_ex.c.obj)
 .text.HAL_TIMEx_HallSensor_DeInit
                0x00000000       0x50 build/lib/liblibdrivers.a(stm32f4xx_hal_tim_ex.c.obj)
 .text.HAL_TIMEx_HallSensor_Start
                0x00000000       0xac build/lib/liblibdrivers.a(stm32f4xx_hal_tim_ex.c.obj)
 .text.HAL_TIMEx_HallSensor_Stop
                0x00000000       0x44 build/lib/liblibdrivers.a(stm32f4xx_hal_tim_ex.c.obj)
 .text.HAL_TIMEx_HallSensor_Start_IT
                0x00000000       0xb4 build/lib/liblibdrivers.a(stm32f4xx_hal_tim_ex.c.obj)
 .text.HAL_TIMEx_HallSensor_Stop_IT
                0x00000000       0x4c build/lib/liblibdrivers.a(stm32f4xx_hal_tim_ex.c.obj)
 .text.HAL_TIMEx_HallSensor_Start_DMA
                0x00000000       0xdc build/lib/liblibdrivers.a(stm32f4xx_hal_tim_ex.c.obj)
 .text.HAL_TIMEx_HallSensor_Stop_DMA
                0x00000000       0x4c build/lib/liblibdrivers.a(stm32f4xx_hal_tim_ex.c.obj)
 .text.HAL_TIMEx_OCN_Start
                0x00000000       0xc8 build/lib/liblibdrivers.a(stm32f4xx_hal_tim_ex.c.obj)
 .text.HAL_TIMEx_OCN_Stop
                0x00000000       0x8c build/lib/liblibdrivers.a(stm32f4xx_hal_tim_ex.c.obj)
 .text.HAL_TIMEx_OCN_Start_IT
                0x00000000       0xe4 build/lib/liblibdrivers.a(stm32f4xx_hal_tim_ex.c.obj)
 .text.HAL_TIMEx_OCN_Stop_IT
                0x00000000       0xbc build/lib/liblibdrivers.a(stm32f4xx_hal_tim_ex.c.obj)
 .text.HAL_TIMEx_OCN_Start_DMA
                0x00000000      0x188 build/lib/liblibdrivers.a(stm32f4xx_hal_tim_ex.c.obj)
 .text.HAL_TIMEx_OCN_Stop_DMA
                0x00000000       0xb4 build/lib/liblibdrivers.a(stm32f4xx_hal_tim_ex.c.obj)
 .text.HAL_TIMEx_PWMN_Start
                0x00000000       0xc8 build/lib/liblibdrivers.a(stm32f4xx_hal_tim_ex.c.obj)
 .text.HAL_TIMEx_PWMN_Stop
                0x00000000       0x8c build/lib/liblibdrivers.a(stm32f4xx_hal_tim_ex.c.obj)
 .text.HAL_TIMEx_PWMN_Start_IT
                0x00000000       0xe4 build/lib/liblibdrivers.a(stm32f4xx_hal_tim_ex.c.obj)
 .text.HAL_TIMEx_PWMN_Stop_IT
                0x00000000       0xbc build/lib/liblibdrivers.a(stm32f4xx_hal_tim_ex.c.obj)
 .text.HAL_TIMEx_PWMN_Start_DMA
                0x00000000      0x188 build/lib/liblibdrivers.a(stm32f4xx_hal_tim_ex.c.obj)
 .text.HAL_TIMEx_PWMN_Stop_DMA
                0x00000000       0xb4 build/lib/liblibdrivers.a(stm32f4xx_hal_tim_ex.c.obj)
 .text.HAL_TIMEx_OnePulseN_Start
                0x00000000       0x84 build/lib/liblibdrivers.a(stm32f4xx_hal_tim_ex.c.obj)
 .text.HAL_TIMEx_OnePulseN_Stop
                0x00000000       0x7c build/lib/liblibdrivers.a(stm32f4xx_hal_tim_ex.c.obj)
 .text.HAL_TIMEx_OnePulseN_Start_IT
                0x00000000       0x94 build/lib/liblibdrivers.a(stm32f4xx_hal_tim_ex.c.obj)
 .text.HAL_TIMEx_OnePulseN_Stop_IT
                0x00000000       0x8c build/lib/liblibdrivers.a(stm32f4xx_hal_tim_ex.c.obj)
 .text.HAL_TIMEx_ConfigCommutEvent
                0x00000000       0x6c build/lib/liblibdrivers.a(stm32f4xx_hal_tim_ex.c.obj)
 .text.HAL_TIMEx_ConfigCommutEvent_IT
                0x00000000       0x6c build/lib/liblibdrivers.a(stm32f4xx_hal_tim_ex.c.obj)
 .text.HAL_TIMEx_ConfigCommutEvent_DMA
                0x00000000       0x84 build/lib/liblibdrivers.a(stm32f4xx_hal_tim_ex.c.obj)
 .text.HAL_TIMEx_ConfigBreakDeadTime
                0x00000000       0x54 build/lib/liblibdrivers.a(stm32f4xx_hal_tim_ex.c.obj)
 .text.HAL_TIMEx_RemapConfig
                0x00000000       0x1c build/lib/liblibdrivers.a(stm32f4xx_hal_tim_ex.c.obj)
 .text.HAL_TIMEx_CommutCallback
                0x00000000        0x4 build/lib/liblibdrivers.a(stm32f4xx_hal_tim_ex.c.obj)
 .text.TIMEx_DMACommutationCplt
                0x00000000       0x10 build/lib/liblibdrivers.a(stm32f4xx_hal_tim_ex.c.obj)
 .text.HAL_TIMEx_CommutHalfCpltCallback
                0x00000000        0x4 build/lib/liblibdrivers.a(stm32f4xx_hal_tim_ex.c.obj)
 .text.TIMEx_DMACommutationHalfCplt
                0x00000000       0x10 build/lib/liblibdrivers.a(stm32f4xx_hal_tim_ex.c.obj)
 .text.HAL_TIMEx_BreakCallback
                0x00000000        0x4 build/lib/liblibdrivers.a(stm32f4xx_hal_tim_ex.c.obj)
 .text.HAL_TIMEx_HallSensor_GetState
                0x00000000        0x8 build/lib/liblibdrivers.a(stm32f4xx_hal_tim_ex.c.obj)
 .text.HAL_TIMEx_GetChannelNState
                0x00000000       0x28 build/lib/liblibdrivers.a(stm32f4xx_hal_tim_ex.c.obj)
 .text          0x00000000        0x0 build/lib/liblibdrivers.a(stm32f4xx_hal_uart.c.obj)
 .data          0x00000000        0x0 build/lib/liblibdrivers.a(stm32f4xx_hal_uart.c.obj)
 .bss           0x00000000        0x0 build/lib/liblibdrivers.a(stm32f4xx_hal_uart.c.obj)
 .text.HAL_HalfDuplex_Init
                0x00000000      0x12c build/lib/liblibdrivers.a(stm32f4xx_hal_uart.c.obj)
 .text.HAL_LIN_Init
                0x00000000      0x140 build/lib/liblibdrivers.a(stm32f4xx_hal_uart.c.obj)
 .text.HAL_MultiProcessor_Init
                0x00000000      0x144 build/lib/liblibdrivers.a(stm32f4xx_hal_uart.c.obj)
 .text.HAL_UART_MspDeInit
                0x00000000        0x4 build/lib/liblibdrivers.a(stm32f4xx_hal_uart.c.obj)
 .text.HAL_UART_DeInit
                0x00000000       0x38 build/lib/liblibdrivers.a(stm32f4xx_hal_uart.c.obj)
 .text.HAL_UART_Receive
                0x00000000      0x1bc build/lib/liblibdrivers.a(stm32f4xx_hal_uart.c.obj)
 .text.HAL_UART_Transmit_IT
                0x00000000       0x38 build/lib/liblibdrivers.a(stm32f4xx_hal_uart.c.obj)
 .text.HAL_UART_Transmit_DMA
                0x00000000       0x78 build/lib/liblibdrivers.a(stm32f4xx_hal_uart.c.obj)
 .text.HAL_UART_DMAPause
                0x00000000       0x88 build/lib/liblibdrivers.a(stm32f4xx_hal_uart.c.obj)
 .text.HAL_UART_DMAResume
                0x00000000       0x9c build/lib/liblibdrivers.a(stm32f4xx_hal_uart.c.obj)
 .text.HAL_UART_DMAStop
                0x00000000       0xf0 build/lib/liblibdrivers.a(stm32f4xx_hal_uart.c.obj)
 .text.HAL_UARTEx_ReceiveToIdle
                0x00000000      0x180 build/lib/liblibdrivers.a(stm32f4xx_hal_uart.c.obj)
 .text.HAL_UARTEx_ReceiveToIdle_IT
                0x00000000       0x88 build/lib/liblibdrivers.a(stm32f4xx_hal_uart.c.obj)
 .text.HAL_UARTEx_GetRxEventType
                0x00000000        0x4 build/lib/liblibdrivers.a(stm32f4xx_hal_uart.c.obj)
 .text.HAL_UART_Abort
                0x00000000       0xec build/lib/liblibdrivers.a(stm32f4xx_hal_uart.c.obj)
 .text.HAL_UART_AbortTransmit
                0x00000000       0x6c build/lib/liblibdrivers.a(stm32f4xx_hal_uart.c.obj)
 .text.HAL_UART_AbortReceive
                0x00000000       0xa8 build/lib/liblibdrivers.a(stm32f4xx_hal_uart.c.obj)
 .text.UART_DMATransmitCplt
                0x00000000       0x4c build/lib/liblibdrivers.a(stm32f4xx_hal_uart.c.obj)
 .text.HAL_UART_TxHalfCpltCallback
                0x00000000        0x4 build/lib/liblibdrivers.a(stm32f4xx_hal_uart.c.obj)
 .text.UART_DMATxHalfCplt
                0x00000000        0xc build/lib/liblibdrivers.a(stm32f4xx_hal_uart.c.obj)
 .text.HAL_UART_RxCpltCallback
                0x00000000        0x4 build/lib/liblibdrivers.a(stm32f4xx_hal_uart.c.obj)
 .text.HAL_UART_RxHalfCpltCallback
                0x00000000        0x4 build/lib/liblibdrivers.a(stm32f4xx_hal_uart.c.obj)
 .text.UART_DMAError
                0x00000000       0xbc build/lib/liblibdrivers.a(stm32f4xx_hal_uart.c.obj)
 .text.HAL_UART_AbortCpltCallback
                0x00000000        0x4 build/lib/liblibdrivers.a(stm32f4xx_hal_uart.c.obj)
 .text.HAL_UART_Abort_IT
                0x00000000      0x11c build/lib/liblibdrivers.a(stm32f4xx_hal_uart.c.obj)
 .text.UART_DMARxAbortCallback
                0x00000000       0x30 build/lib/liblibdrivers.a(stm32f4xx_hal_uart.c.obj)
 .text.UART_DMATxAbortCallback
                0x00000000       0x30 build/lib/liblibdrivers.a(stm32f4xx_hal_uart.c.obj)
 .text.HAL_UART_AbortTransmitCpltCallback
                0x00000000        0x4 build/lib/liblibdrivers.a(stm32f4xx_hal_uart.c.obj)
 .text.HAL_UART_AbortTransmit_IT
                0x00000000       0x80 build/lib/liblibdrivers.a(stm32f4xx_hal_uart.c.obj)
 .text.UART_DMATxOnlyAbortCallback
                0x00000000       0x14 build/lib/liblibdrivers.a(stm32f4xx_hal_uart.c.obj)
 .text.HAL_UART_AbortReceiveCpltCallback
                0x00000000        0x4 build/lib/liblibdrivers.a(stm32f4xx_hal_uart.c.obj)
 .text.HAL_UART_AbortReceive_IT
                0x00000000       0xbc build/lib/liblibdrivers.a(stm32f4xx_hal_uart.c.obj)
 .text.UART_DMARxOnlyAbortCallback
                0x00000000       0x18 build/lib/liblibdrivers.a(stm32f4xx_hal_uart.c.obj)
 .text.UART_DMARxHalfCplt
                0x00000000       0x20 build/lib/liblibdrivers.a(stm32f4xx_hal_uart.c.obj)
 .text.UART_DMAReceiveCplt
                0x00000000       0x98 build/lib/liblibdrivers.a(stm32f4xx_hal_uart.c.obj)
 .text.HAL_LIN_SendBreak
                0x00000000       0x40 build/lib/liblibdrivers.a(stm32f4xx_hal_uart.c.obj)
 .text.HAL_MultiProcessor_EnterMuteMode
                0x00000000       0x44 build/lib/liblibdrivers.a(stm32f4xx_hal_uart.c.obj)
 .text.HAL_MultiProcessor_ExitMuteMode
                0x00000000       0x44 build/lib/liblibdrivers.a(stm32f4xx_hal_uart.c.obj)
 .text.HAL_HalfDuplex_EnableTransmitter
                0x00000000       0x34 build/lib/liblibdrivers.a(stm32f4xx_hal_uart.c.obj)
 .text.HAL_HalfDuplex_EnableReceiver
                0x00000000       0x34 build/lib/liblibdrivers.a(stm32f4xx_hal_uart.c.obj)
 .text.HAL_UART_GetState
                0x00000000        0xc build/lib/liblibdrivers.a(stm32f4xx_hal_uart.c.obj)
 .text.HAL_UART_GetError
                0x00000000        0x4 build/lib/liblibdrivers.a(stm32f4xx_hal_uart.c.obj)
 .text.UART_Start_Receive_IT
                0x00000000       0x38 build/lib/liblibdrivers.a(stm32f4xx_hal_uart.c.obj)
 .text.UART_Start_Receive_DMA
                0x00000000       0x9c build/lib/liblibdrivers.a(stm32f4xx_hal_uart.c.obj)
 .text.HAL_UART_Receive_DMA
                0x00000000       0x24 build/lib/liblibdrivers.a(stm32f4xx_hal_uart.c.obj)
 .text.HAL_UARTEx_ReceiveToIdle_DMA
                0x00000000       0x60 build/lib/liblibdrivers.a(stm32f4xx_hal_uart.c.obj)
 .text          0x00000000        0x0 build/lib/liblibdrivers.a(stm32f4xx_ll_fsmc.c.obj)
 .data          0x00000000        0x0 build/lib/liblibdrivers.a(stm32f4xx_ll_fsmc.c.obj)
 .bss           0x00000000        0x0 build/lib/liblibdrivers.a(stm32f4xx_ll_fsmc.c.obj)
 .text.FSMC_NORSRAM_DeInit
                0x00000000       0x34 build/lib/liblibdrivers.a(stm32f4xx_ll_fsmc.c.obj)
 .text.FSMC_NORSRAM_WriteOperation_Enable
                0x00000000       0x14 build/lib/liblibdrivers.a(stm32f4xx_ll_fsmc.c.obj)
 .text.FSMC_NORSRAM_WriteOperation_Disable
                0x00000000       0x14 build/lib/liblibdrivers.a(stm32f4xx_ll_fsmc.c.obj)
 .text.FSMC_NAND_Init
                0x00000000       0x58 build/lib/liblibdrivers.a(stm32f4xx_ll_fsmc.c.obj)
 .text.FSMC_NAND_CommonSpace_Timing_Init
                0x00000000       0x2c build/lib/liblibdrivers.a(stm32f4xx_ll_fsmc.c.obj)
 .text.FSMC_NAND_AttributeSpace_Timing_Init
                0x00000000       0x2c build/lib/liblibdrivers.a(stm32f4xx_ll_fsmc.c.obj)
 .text.FSMC_NAND_DeInit
                0x00000000       0x48 build/lib/liblibdrivers.a(stm32f4xx_ll_fsmc.c.obj)
 .text.FSMC_NAND_ECC_Enable
                0x00000000       0x1c build/lib/liblibdrivers.a(stm32f4xx_ll_fsmc.c.obj)
 .text.FSMC_NAND_ECC_Disable
                0x00000000       0x1c build/lib/liblibdrivers.a(stm32f4xx_ll_fsmc.c.obj)
 .text.FSMC_NAND_GetECC
                0x00000000       0x6c build/lib/liblibdrivers.a(stm32f4xx_ll_fsmc.c.obj)
 .text.FSMC_PCCARD_Init
                0x00000000       0x28 build/lib/liblibdrivers.a(stm32f4xx_ll_fsmc.c.obj)
 .text.FSMC_PCCARD_CommonSpace_Timing_Init
                0x00000000       0x24 build/lib/liblibdrivers.a(stm32f4xx_ll_fsmc.c.obj)
 .text.FSMC_PCCARD_AttributeSpace_Timing_Init
                0x00000000       0x24 build/lib/liblibdrivers.a(stm32f4xx_ll_fsmc.c.obj)
 .text.FSMC_PCCARD_IOSpace_Timing_Init
                0x00000000       0x24 build/lib/liblibdrivers.a(stm32f4xx_ll_fsmc.c.obj)
 .text.FSMC_PCCARD_DeInit
                0x00000000       0x28 build/lib/liblibdrivers.a(stm32f4xx_ll_fsmc.c.obj)
 .group         0x00000000        0x8 build/lib/liblibmodule.a(key.cpp.obj)
 .group         0x00000000        0x8 build/lib/liblibmodule.a(key.cpp.obj)
 .group         0x00000000        0x8 build/lib/liblibmodule.a(key.cpp.obj)
 .text          0x00000000        0x0 build/lib/liblibmodule.a(key.cpp.obj)
 .data          0x00000000        0x0 build/lib/liblibmodule.a(key.cpp.obj)
 .bss           0x00000000        0x0 build/lib/liblibmodule.a(key.cpp.obj)
 .text._Z11key_handlerv
                0x00000000        0x4 build/lib/liblibmodule.a(key.cpp.obj)
 .ARM.extab.text._Z11key_handlerv
                0x00000000        0x0 build/lib/liblibmodule.a(key.cpp.obj)
 .ARM.exidx.text._Z11key_handlerv
                0x00000000        0x8 build/lib/liblibmodule.a(key.cpp.obj)
 .ARM.extab.text._ZN3Key12stateHandlerEh
                0x00000000        0x0 build/lib/liblibmodule.a(key.cpp.obj)
 .bss._ZN3Key4signE
                0x00000000        0x1 build/lib/liblibmodule.a(key.cpp.obj)
 .bss._ZN3Key4codeE
                0x00000000        0x1 build/lib/liblibmodule.a(key.cpp.obj)
 .text          0x00000000      0x254 E:/Tools/Develop/ToolsKits/ARM/arm-gnu-toolchain_v13_3/bin/../lib/gcc/arm-none-eabi/13.3.1/thumb/v7e-m+fp/hard\libgcc.a(_arm_muldf3.o)
 .data          0x00000000        0x0 E:/Tools/Develop/ToolsKits/ARM/arm-gnu-toolchain_v13_3/bin/../lib/gcc/arm-none-eabi/13.3.1/thumb/v7e-m+fp/hard\libgcc.a(_arm_muldf3.o)
 .bss           0x00000000        0x0 E:/Tools/Develop/ToolsKits/ARM/arm-gnu-toolchain_v13_3/bin/../lib/gcc/arm-none-eabi/13.3.1/thumb/v7e-m+fp/hard\libgcc.a(_arm_muldf3.o)
 .debug_line_str
                0x00000000       0xce E:/Tools/Develop/ToolsKits/ARM/arm-gnu-toolchain_v13_3/bin/../lib/gcc/arm-none-eabi/13.3.1/thumb/v7e-m+fp/hard\libgcc.a(_arm_muldf3.o)
 .debug_frame   0x00000000       0x30 E:/Tools/Develop/ToolsKits/ARM/arm-gnu-toolchain_v13_3/bin/../lib/gcc/arm-none-eabi/13.3.1/thumb/v7e-m+fp/hard\libgcc.a(_arm_muldf3.o)
 .ARM.attributes
                0x00000000       0x22 E:/Tools/Develop/ToolsKits/ARM/arm-gnu-toolchain_v13_3/bin/../lib/gcc/arm-none-eabi/13.3.1/thumb/v7e-m+fp/hard\libgcc.a(_arm_muldf3.o)
 .data          0x00000000        0x0 E:/Tools/Develop/ToolsKits/ARM/arm-gnu-toolchain_v13_3/bin/../lib/gcc/arm-none-eabi/13.3.1/thumb/v7e-m+fp/hard\libgcc.a(_arm_addsubdf3.o)
 .bss           0x00000000        0x0 E:/Tools/Develop/ToolsKits/ARM/arm-gnu-toolchain_v13_3/bin/../lib/gcc/arm-none-eabi/13.3.1/thumb/v7e-m+fp/hard\libgcc.a(_arm_addsubdf3.o)
 .text          0x00000000       0xa0 E:/Tools/Develop/ToolsKits/ARM/arm-gnu-toolchain_v13_3/bin/../lib/gcc/arm-none-eabi/13.3.1/thumb/v7e-m+fp/hard\libgcc.a(_aeabi_ldivmod.o)
 .data          0x00000000        0x0 E:/Tools/Develop/ToolsKits/ARM/arm-gnu-toolchain_v13_3/bin/../lib/gcc/arm-none-eabi/13.3.1/thumb/v7e-m+fp/hard\libgcc.a(_aeabi_ldivmod.o)
 .bss           0x00000000        0x0 E:/Tools/Develop/ToolsKits/ARM/arm-gnu-toolchain_v13_3/bin/../lib/gcc/arm-none-eabi/13.3.1/thumb/v7e-m+fp/hard\libgcc.a(_aeabi_ldivmod.o)
 .debug_line_str
                0x00000000       0xc9 E:/Tools/Develop/ToolsKits/ARM/arm-gnu-toolchain_v13_3/bin/../lib/gcc/arm-none-eabi/13.3.1/thumb/v7e-m+fp/hard\libgcc.a(_aeabi_ldivmod.o)
 .debug_frame   0x00000000       0x44 E:/Tools/Develop/ToolsKits/ARM/arm-gnu-toolchain_v13_3/bin/../lib/gcc/arm-none-eabi/13.3.1/thumb/v7e-m+fp/hard\libgcc.a(_aeabi_ldivmod.o)
 .ARM.attributes
                0x00000000       0x22 E:/Tools/Develop/ToolsKits/ARM/arm-gnu-toolchain_v13_3/bin/../lib/gcc/arm-none-eabi/13.3.1/thumb/v7e-m+fp/hard\libgcc.a(_aeabi_ldivmod.o)
 .data          0x00000000        0x0 E:/Tools/Develop/ToolsKits/ARM/arm-gnu-toolchain_v13_3/bin/../lib/gcc/arm-none-eabi/13.3.1/thumb/v7e-m+fp/hard\libgcc.a(_aeabi_uldivmod.o)
 .bss           0x00000000        0x0 E:/Tools/Develop/ToolsKits/ARM/arm-gnu-toolchain_v13_3/bin/../lib/gcc/arm-none-eabi/13.3.1/thumb/v7e-m+fp/hard\libgcc.a(_aeabi_uldivmod.o)
 .text          0x00000000        0x0 E:/Tools/Develop/ToolsKits/ARM/arm-gnu-toolchain_v13_3/bin/../lib/gcc/arm-none-eabi/13.3.1/thumb/v7e-m+fp/hard\libgcc.a(_udivmoddi4.o)
 .data          0x00000000        0x0 E:/Tools/Develop/ToolsKits/ARM/arm-gnu-toolchain_v13_3/bin/../lib/gcc/arm-none-eabi/13.3.1/thumb/v7e-m+fp/hard\libgcc.a(_udivmoddi4.o)
 .bss           0x00000000        0x0 E:/Tools/Develop/ToolsKits/ARM/arm-gnu-toolchain_v13_3/bin/../lib/gcc/arm-none-eabi/13.3.1/thumb/v7e-m+fp/hard\libgcc.a(_udivmoddi4.o)
 .ARM.extab.text.__udivmoddi4
                0x00000000        0x0 E:/Tools/Develop/ToolsKits/ARM/arm-gnu-toolchain_v13_3/bin/../lib/gcc/arm-none-eabi/13.3.1/thumb/v7e-m+fp/hard\libgcc.a(_udivmoddi4.o)
 .text          0x00000000        0x0 E:/Tools/Develop/ToolsKits/ARM/arm-gnu-toolchain_v13_3/bin/../lib/gcc/arm-none-eabi/13.3.1/thumb/v7e-m+fp/hard\libgcc.a(unwind-arm.o)
 .data          0x00000000        0x0 E:/Tools/Develop/ToolsKits/ARM/arm-gnu-toolchain_v13_3/bin/../lib/gcc/arm-none-eabi/13.3.1/thumb/v7e-m+fp/hard\libgcc.a(unwind-arm.o)
 .bss           0x00000000        0x0 E:/Tools/Develop/ToolsKits/ARM/arm-gnu-toolchain_v13_3/bin/../lib/gcc/arm-none-eabi/13.3.1/thumb/v7e-m+fp/hard\libgcc.a(unwind-arm.o)
 .ARM.extab.text.selfrel_offset31
                0x00000000        0x0 E:/Tools/Develop/ToolsKits/ARM/arm-gnu-toolchain_v13_3/bin/../lib/gcc/arm-none-eabi/13.3.1/thumb/v7e-m+fp/hard\libgcc.a(unwind-arm.o)
 .ARM.extab.text.search_EIT_table
                0x00000000        0x0 E:/Tools/Develop/ToolsKits/ARM/arm-gnu-toolchain_v13_3/bin/../lib/gcc/arm-none-eabi/13.3.1/thumb/v7e-m+fp/hard\libgcc.a(unwind-arm.o)
 .ARM.extab.text.__gnu_unwind_get_pr_addr
                0x00000000        0x0 E:/Tools/Develop/ToolsKits/ARM/arm-gnu-toolchain_v13_3/bin/../lib/gcc/arm-none-eabi/13.3.1/thumb/v7e-m+fp/hard\libgcc.a(unwind-arm.o)
 .ARM.extab.text.get_eit_entry
                0x00000000        0x0 E:/Tools/Develop/ToolsKits/ARM/arm-gnu-toolchain_v13_3/bin/../lib/gcc/arm-none-eabi/13.3.1/thumb/v7e-m+fp/hard\libgcc.a(unwind-arm.o)
 .ARM.extab.text.restore_non_core_regs
                0x00000000        0x0 E:/Tools/Develop/ToolsKits/ARM/arm-gnu-toolchain_v13_3/bin/../lib/gcc/arm-none-eabi/13.3.1/thumb/v7e-m+fp/hard\libgcc.a(unwind-arm.o)
 .ARM.extab.text._Unwind_decode_typeinfo_ptr.constprop.0
                0x00000000        0x0 E:/Tools/Develop/ToolsKits/ARM/arm-gnu-toolchain_v13_3/bin/../lib/gcc/arm-none-eabi/13.3.1/thumb/v7e-m+fp/hard\libgcc.a(unwind-arm.o)
 .text.__gnu_unwind_24bit.isra.0
                0x00000000        0x4 E:/Tools/Develop/ToolsKits/ARM/arm-gnu-toolchain_v13_3/bin/../lib/gcc/arm-none-eabi/13.3.1/thumb/v7e-m+fp/hard\libgcc.a(unwind-arm.o)
 .ARM.extab.text.__gnu_unwind_24bit.isra.0
                0x00000000        0x0 E:/Tools/Develop/ToolsKits/ARM/arm-gnu-toolchain_v13_3/bin/../lib/gcc/arm-none-eabi/13.3.1/thumb/v7e-m+fp/hard\libgcc.a(unwind-arm.o)
 .ARM.exidx.text.__gnu_unwind_24bit.isra.0
                0x00000000        0x8 E:/Tools/Develop/ToolsKits/ARM/arm-gnu-toolchain_v13_3/bin/../lib/gcc/arm-none-eabi/13.3.1/thumb/v7e-m+fp/hard\libgcc.a(unwind-arm.o)
 .ARM.extab.text._Unwind_DebugHook
                0x00000000        0x0 E:/Tools/Develop/ToolsKits/ARM/arm-gnu-toolchain_v13_3/bin/../lib/gcc/arm-none-eabi/13.3.1/thumb/v7e-m+fp/hard\libgcc.a(unwind-arm.o)
 .ARM.extab.text.unwind_phase2
                0x00000000        0x0 E:/Tools/Develop/ToolsKits/ARM/arm-gnu-toolchain_v13_3/bin/../lib/gcc/arm-none-eabi/13.3.1/thumb/v7e-m+fp/hard\libgcc.a(unwind-arm.o)
 .ARM.extab.text.unwind_phase2_forced
                0x00000000        0x0 E:/Tools/Develop/ToolsKits/ARM/arm-gnu-toolchain_v13_3/bin/../lib/gcc/arm-none-eabi/13.3.1/thumb/v7e-m+fp/hard\libgcc.a(unwind-arm.o)
 .text._Unwind_GetCFA
                0x00000000        0x4 E:/Tools/Develop/ToolsKits/ARM/arm-gnu-toolchain_v13_3/bin/../lib/gcc/arm-none-eabi/13.3.1/thumb/v7e-m+fp/hard\libgcc.a(unwind-arm.o)
 .ARM.extab.text._Unwind_GetCFA
                0x00000000        0x0 E:/Tools/Develop/ToolsKits/ARM/arm-gnu-toolchain_v13_3/bin/../lib/gcc/arm-none-eabi/13.3.1/thumb/v7e-m+fp/hard\libgcc.a(unwind-arm.o)
 .ARM.exidx.text._Unwind_GetCFA
                0x00000000        0x8 E:/Tools/Develop/ToolsKits/ARM/arm-gnu-toolchain_v13_3/bin/../lib/gcc/arm-none-eabi/13.3.1/thumb/v7e-m+fp/hard\libgcc.a(unwind-arm.o)
 .ARM.extab.text.__gnu_Unwind_RaiseException
                0x00000000        0x0 E:/Tools/Develop/ToolsKits/ARM/arm-gnu-toolchain_v13_3/bin/../lib/gcc/arm-none-eabi/13.3.1/thumb/v7e-m+fp/hard\libgcc.a(unwind-arm.o)
 .ARM.extab.text.__gnu_Unwind_ForcedUnwind
                0x00000000        0x0 E:/Tools/Develop/ToolsKits/ARM/arm-gnu-toolchain_v13_3/bin/../lib/gcc/arm-none-eabi/13.3.1/thumb/v7e-m+fp/hard\libgcc.a(unwind-arm.o)
 .ARM.extab.text.__gnu_Unwind_Resume
                0x00000000        0x0 E:/Tools/Develop/ToolsKits/ARM/arm-gnu-toolchain_v13_3/bin/../lib/gcc/arm-none-eabi/13.3.1/thumb/v7e-m+fp/hard\libgcc.a(unwind-arm.o)
 .ARM.extab.text.__gnu_Unwind_Resume_or_Rethrow
                0x00000000        0x0 E:/Tools/Develop/ToolsKits/ARM/arm-gnu-toolchain_v13_3/bin/../lib/gcc/arm-none-eabi/13.3.1/thumb/v7e-m+fp/hard\libgcc.a(unwind-arm.o)
 .text._Unwind_Complete
                0x00000000        0x4 E:/Tools/Develop/ToolsKits/ARM/arm-gnu-toolchain_v13_3/bin/../lib/gcc/arm-none-eabi/13.3.1/thumb/v7e-m+fp/hard\libgcc.a(unwind-arm.o)
 .ARM.extab.text._Unwind_Complete
                0x00000000        0x0 E:/Tools/Develop/ToolsKits/ARM/arm-gnu-toolchain_v13_3/bin/../lib/gcc/arm-none-eabi/13.3.1/thumb/v7e-m+fp/hard\libgcc.a(unwind-arm.o)
 .ARM.exidx.text._Unwind_Complete
                0x00000000        0x8 E:/Tools/Develop/ToolsKits/ARM/arm-gnu-toolchain_v13_3/bin/../lib/gcc/arm-none-eabi/13.3.1/thumb/v7e-m+fp/hard\libgcc.a(unwind-arm.o)
 .text._Unwind_DeleteException
                0x00000000        0xc E:/Tools/Develop/ToolsKits/ARM/arm-gnu-toolchain_v13_3/bin/../lib/gcc/arm-none-eabi/13.3.1/thumb/v7e-m+fp/hard\libgcc.a(unwind-arm.o)
 .ARM.extab.text._Unwind_DeleteException
                0x00000000        0x0 E:/Tools/Develop/ToolsKits/ARM/arm-gnu-toolchain_v13_3/bin/../lib/gcc/arm-none-eabi/13.3.1/thumb/v7e-m+fp/hard\libgcc.a(unwind-arm.o)
 .ARM.exidx.text._Unwind_DeleteException
                0x00000000        0x8 E:/Tools/Develop/ToolsKits/ARM/arm-gnu-toolchain_v13_3/bin/../lib/gcc/arm-none-eabi/13.3.1/thumb/v7e-m+fp/hard\libgcc.a(unwind-arm.o)
 .ARM.extab.text._Unwind_VRS_Get
                0x00000000        0x0 E:/Tools/Develop/ToolsKits/ARM/arm-gnu-toolchain_v13_3/bin/../lib/gcc/arm-none-eabi/13.3.1/thumb/v7e-m+fp/hard\libgcc.a(unwind-arm.o)
 .ARM.extab.text._Unwind_GetGR
                0x00000000        0x0 E:/Tools/Develop/ToolsKits/ARM/arm-gnu-toolchain_v13_3/bin/../lib/gcc/arm-none-eabi/13.3.1/thumb/v7e-m+fp/hard\libgcc.a(unwind-arm.o)
 .ARM.extab.text._Unwind_VRS_Set
                0x00000000        0x0 E:/Tools/Develop/ToolsKits/ARM/arm-gnu-toolchain_v13_3/bin/../lib/gcc/arm-none-eabi/13.3.1/thumb/v7e-m+fp/hard\libgcc.a(unwind-arm.o)
 .ARM.extab.text._Unwind_SetGR
                0x00000000        0x0 E:/Tools/Develop/ToolsKits/ARM/arm-gnu-toolchain_v13_3/bin/../lib/gcc/arm-none-eabi/13.3.1/thumb/v7e-m+fp/hard\libgcc.a(unwind-arm.o)
 .ARM.extab.text.__gnu_Unwind_Backtrace
                0x00000000        0x0 E:/Tools/Develop/ToolsKits/ARM/arm-gnu-toolchain_v13_3/bin/../lib/gcc/arm-none-eabi/13.3.1/thumb/v7e-m+fp/hard\libgcc.a(unwind-arm.o)
 .ARM.extab.text.__gnu_unwind_pr_common
                0x00000000        0x0 E:/Tools/Develop/ToolsKits/ARM/arm-gnu-toolchain_v13_3/bin/../lib/gcc/arm-none-eabi/13.3.1/thumb/v7e-m+fp/hard\libgcc.a(unwind-arm.o)
 .ARM.extab.text.__aeabi_unwind_cpp_pr0
                0x00000000        0x0 E:/Tools/Develop/ToolsKits/ARM/arm-gnu-toolchain_v13_3/bin/../lib/gcc/arm-none-eabi/13.3.1/thumb/v7e-m+fp/hard\libgcc.a(unwind-arm.o)
 .ARM.extab.text.__aeabi_unwind_cpp_pr1
                0x00000000        0x0 E:/Tools/Develop/ToolsKits/ARM/arm-gnu-toolchain_v13_3/bin/../lib/gcc/arm-none-eabi/13.3.1/thumb/v7e-m+fp/hard\libgcc.a(unwind-arm.o)
 .ARM.extab.text.__aeabi_unwind_cpp_pr2
                0x00000000        0x0 E:/Tools/Develop/ToolsKits/ARM/arm-gnu-toolchain_v13_3/bin/../lib/gcc/arm-none-eabi/13.3.1/thumb/v7e-m+fp/hard\libgcc.a(unwind-arm.o)
 .ARM.extab.text._Unwind_VRS_Pop
                0x00000000        0x0 E:/Tools/Develop/ToolsKits/ARM/arm-gnu-toolchain_v13_3/bin/../lib/gcc/arm-none-eabi/13.3.1/thumb/v7e-m+fp/hard\libgcc.a(unwind-arm.o)
 .data          0x00000000        0x0 E:/Tools/Develop/ToolsKits/ARM/arm-gnu-toolchain_v13_3/bin/../lib/gcc/arm-none-eabi/13.3.1/thumb/v7e-m+fp/hard\libgcc.a(libunwind.o)
 .bss           0x00000000        0x0 E:/Tools/Develop/ToolsKits/ARM/arm-gnu-toolchain_v13_3/bin/../lib/gcc/arm-none-eabi/13.3.1/thumb/v7e-m+fp/hard\libgcc.a(libunwind.o)
 .text          0x00000000        0x0 E:/Tools/Develop/ToolsKits/ARM/arm-gnu-toolchain_v13_3/bin/../lib/gcc/arm-none-eabi/13.3.1/thumb/v7e-m+fp/hard\libgcc.a(pr-support.o)
 .data          0x00000000        0x0 E:/Tools/Develop/ToolsKits/ARM/arm-gnu-toolchain_v13_3/bin/../lib/gcc/arm-none-eabi/13.3.1/thumb/v7e-m+fp/hard\libgcc.a(pr-support.o)
 .bss           0x00000000        0x0 E:/Tools/Develop/ToolsKits/ARM/arm-gnu-toolchain_v13_3/bin/../lib/gcc/arm-none-eabi/13.3.1/thumb/v7e-m+fp/hard\libgcc.a(pr-support.o)
 .ARM.extab.text.next_unwind_byte
                0x00000000        0x0 E:/Tools/Develop/ToolsKits/ARM/arm-gnu-toolchain_v13_3/bin/../lib/gcc/arm-none-eabi/13.3.1/thumb/v7e-m+fp/hard\libgcc.a(pr-support.o)
 .text._Unwind_GetGR.constprop.0
                0x00000000       0x1c E:/Tools/Develop/ToolsKits/ARM/arm-gnu-toolchain_v13_3/bin/../lib/gcc/arm-none-eabi/13.3.1/thumb/v7e-m+fp/hard\libgcc.a(pr-support.o)
 .ARM.extab.text._Unwind_GetGR.constprop.0
                0x00000000        0x0 E:/Tools/Develop/ToolsKits/ARM/arm-gnu-toolchain_v13_3/bin/../lib/gcc/arm-none-eabi/13.3.1/thumb/v7e-m+fp/hard\libgcc.a(pr-support.o)
 .ARM.exidx.text._Unwind_GetGR.constprop.0
                0x00000000        0x8 E:/Tools/Develop/ToolsKits/ARM/arm-gnu-toolchain_v13_3/bin/../lib/gcc/arm-none-eabi/13.3.1/thumb/v7e-m+fp/hard\libgcc.a(pr-support.o)
 .text.unwind_UCB_from_context
                0x00000000        0x4 E:/Tools/Develop/ToolsKits/ARM/arm-gnu-toolchain_v13_3/bin/../lib/gcc/arm-none-eabi/13.3.1/thumb/v7e-m+fp/hard\libgcc.a(pr-support.o)
 .ARM.extab.text.unwind_UCB_from_context
                0x00000000        0x0 E:/Tools/Develop/ToolsKits/ARM/arm-gnu-toolchain_v13_3/bin/../lib/gcc/arm-none-eabi/13.3.1/thumb/v7e-m+fp/hard\libgcc.a(pr-support.o)
 .ARM.exidx.text.unwind_UCB_from_context
                0x00000000        0x8 E:/Tools/Develop/ToolsKits/ARM/arm-gnu-toolchain_v13_3/bin/../lib/gcc/arm-none-eabi/13.3.1/thumb/v7e-m+fp/hard\libgcc.a(pr-support.o)
 .ARM.extab.text.__gnu_unwind_execute
                0x00000000        0x0 E:/Tools/Develop/ToolsKits/ARM/arm-gnu-toolchain_v13_3/bin/../lib/gcc/arm-none-eabi/13.3.1/thumb/v7e-m+fp/hard\libgcc.a(pr-support.o)
 .text.__gnu_unwind_frame
                0x00000000       0x2c E:/Tools/Develop/ToolsKits/ARM/arm-gnu-toolchain_v13_3/bin/../lib/gcc/arm-none-eabi/13.3.1/thumb/v7e-m+fp/hard\libgcc.a(pr-support.o)
 .ARM.extab.text.__gnu_unwind_frame
                0x00000000        0x0 E:/Tools/Develop/ToolsKits/ARM/arm-gnu-toolchain_v13_3/bin/../lib/gcc/arm-none-eabi/13.3.1/thumb/v7e-m+fp/hard\libgcc.a(pr-support.o)
 .ARM.exidx.text.__gnu_unwind_frame
                0x00000000        0x8 E:/Tools/Develop/ToolsKits/ARM/arm-gnu-toolchain_v13_3/bin/../lib/gcc/arm-none-eabi/13.3.1/thumb/v7e-m+fp/hard\libgcc.a(pr-support.o)
 .text._Unwind_GetRegionStart
                0x00000000        0xc E:/Tools/Develop/ToolsKits/ARM/arm-gnu-toolchain_v13_3/bin/../lib/gcc/arm-none-eabi/13.3.1/thumb/v7e-m+fp/hard\libgcc.a(pr-support.o)
 .ARM.extab.text._Unwind_GetRegionStart
                0x00000000        0xc E:/Tools/Develop/ToolsKits/ARM/arm-gnu-toolchain_v13_3/bin/../lib/gcc/arm-none-eabi/13.3.1/thumb/v7e-m+fp/hard\libgcc.a(pr-support.o)
 .ARM.exidx.text._Unwind_GetRegionStart
                0x00000000        0x8 E:/Tools/Develop/ToolsKits/ARM/arm-gnu-toolchain_v13_3/bin/../lib/gcc/arm-none-eabi/13.3.1/thumb/v7e-m+fp/hard\libgcc.a(pr-support.o)
 .text._Unwind_GetLanguageSpecificData
                0x00000000       0x14 E:/Tools/Develop/ToolsKits/ARM/arm-gnu-toolchain_v13_3/bin/../lib/gcc/arm-none-eabi/13.3.1/thumb/v7e-m+fp/hard\libgcc.a(pr-support.o)
 .ARM.extab.text._Unwind_GetLanguageSpecificData
                0x00000000        0xc E:/Tools/Develop/ToolsKits/ARM/arm-gnu-toolchain_v13_3/bin/../lib/gcc/arm-none-eabi/13.3.1/thumb/v7e-m+fp/hard\libgcc.a(pr-support.o)
 .ARM.exidx.text._Unwind_GetLanguageSpecificData
                0x00000000        0x8 E:/Tools/Develop/ToolsKits/ARM/arm-gnu-toolchain_v13_3/bin/../lib/gcc/arm-none-eabi/13.3.1/thumb/v7e-m+fp/hard\libgcc.a(pr-support.o)
 .text.unlikely._Unwind_GetDataRelBase
                0x00000000        0x6 E:/Tools/Develop/ToolsKits/ARM/arm-gnu-toolchain_v13_3/bin/../lib/gcc/arm-none-eabi/13.3.1/thumb/v7e-m+fp/hard\libgcc.a(pr-support.o)
 .ARM.extab.text.unlikely._Unwind_GetDataRelBase
                0x00000000        0x0 E:/Tools/Develop/ToolsKits/ARM/arm-gnu-toolchain_v13_3/bin/../lib/gcc/arm-none-eabi/13.3.1/thumb/v7e-m+fp/hard\libgcc.a(pr-support.o)
 .ARM.exidx.text.unlikely._Unwind_GetDataRelBase
                0x00000000        0x8 E:/Tools/Develop/ToolsKits/ARM/arm-gnu-toolchain_v13_3/bin/../lib/gcc/arm-none-eabi/13.3.1/thumb/v7e-m+fp/hard\libgcc.a(pr-support.o)
 .text.unlikely._Unwind_GetTextRelBase
                0x00000000        0x6 E:/Tools/Develop/ToolsKits/ARM/arm-gnu-toolchain_v13_3/bin/../lib/gcc/arm-none-eabi/13.3.1/thumb/v7e-m+fp/hard\libgcc.a(pr-support.o)
 .ARM.extab.text.unlikely._Unwind_GetTextRelBase
                0x00000000        0x0 E:/Tools/Develop/ToolsKits/ARM/arm-gnu-toolchain_v13_3/bin/../lib/gcc/arm-none-eabi/13.3.1/thumb/v7e-m+fp/hard\libgcc.a(pr-support.o)
 .ARM.exidx.text.unlikely._Unwind_GetTextRelBase
                0x00000000        0x8 E:/Tools/Develop/ToolsKits/ARM/arm-gnu-toolchain_v13_3/bin/../lib/gcc/arm-none-eabi/13.3.1/thumb/v7e-m+fp/hard\libgcc.a(pr-support.o)
 .data          0x00000000        0x0 E:/Tools/Develop/ToolsKits/ARM/arm-gnu-toolchain_v13_3/bin/../lib/gcc/arm-none-eabi/13.3.1/thumb/v7e-m+fp/hard\libgcc.a(_dvmd_tls.o)
 .bss           0x00000000        0x0 E:/Tools/Develop/ToolsKits/ARM/arm-gnu-toolchain_v13_3/bin/../lib/gcc/arm-none-eabi/13.3.1/thumb/v7e-m+fp/hard\libgcc.a(_dvmd_tls.o)
 .text          0x00000000        0x0 E:/Tools/Develop/ToolsKits/ARM/arm-gnu-toolchain_v13_3/bin/../lib/gcc/arm-none-eabi/13.3.1/thumb/v7e-m+fp/hard\libc.a(libc_a-abort.o)
 .data          0x00000000        0x0 E:/Tools/Develop/ToolsKits/ARM/arm-gnu-toolchain_v13_3/bin/../lib/gcc/arm-none-eabi/13.3.1/thumb/v7e-m+fp/hard\libc.a(libc_a-abort.o)
 .bss           0x00000000        0x0 E:/Tools/Develop/ToolsKits/ARM/arm-gnu-toolchain_v13_3/bin/../lib/gcc/arm-none-eabi/13.3.1/thumb/v7e-m+fp/hard\libc.a(libc_a-abort.o)
 .text          0x00000000        0x0 E:/Tools/Develop/ToolsKits/ARM/arm-gnu-toolchain_v13_3/bin/../lib/gcc/arm-none-eabi/13.3.1/thumb/v7e-m+fp/hard\libc.a(libc_a-exit.o)
 .data          0x00000000        0x0 E:/Tools/Develop/ToolsKits/ARM/arm-gnu-toolchain_v13_3/bin/../lib/gcc/arm-none-eabi/13.3.1/thumb/v7e-m+fp/hard\libc.a(libc_a-exit.o)
 .bss           0x00000000        0x0 E:/Tools/Develop/ToolsKits/ARM/arm-gnu-toolchain_v13_3/bin/../lib/gcc/arm-none-eabi/13.3.1/thumb/v7e-m+fp/hard\libc.a(libc_a-exit.o)
 .text.exit     0x00000000       0x1c E:/Tools/Develop/ToolsKits/ARM/arm-gnu-toolchain_v13_3/bin/../lib/gcc/arm-none-eabi/13.3.1/thumb/v7e-m+fp/hard\libc.a(libc_a-exit.o)
 .debug_frame   0x00000000       0x28 E:/Tools/Develop/ToolsKits/ARM/arm-gnu-toolchain_v13_3/bin/../lib/gcc/arm-none-eabi/13.3.1/thumb/v7e-m+fp/hard\libc.a(libc_a-exit.o)
 .ARM.attributes
                0x00000000       0x34 E:/Tools/Develop/ToolsKits/ARM/arm-gnu-toolchain_v13_3/bin/../lib/gcc/arm-none-eabi/13.3.1/thumb/v7e-m+fp/hard\libc.a(libc_a-exit.o)
 .text          0x00000000        0x0 E:/Tools/Develop/ToolsKits/ARM/arm-gnu-toolchain_v13_3/bin/../lib/gcc/arm-none-eabi/13.3.1/thumb/v7e-m+fp/hard\libc.a(libc_a-findfp.o)
 .data          0x00000000        0x0 E:/Tools/Develop/ToolsKits/ARM/arm-gnu-toolchain_v13_3/bin/../lib/gcc/arm-none-eabi/13.3.1/thumb/v7e-m+fp/hard\libc.a(libc_a-findfp.o)
 .bss           0x00000000        0x0 E:/Tools/Develop/ToolsKits/ARM/arm-gnu-toolchain_v13_3/bin/../lib/gcc/arm-none-eabi/13.3.1/thumb/v7e-m+fp/hard\libc.a(libc_a-findfp.o)
 .text.__fp_lock
                0x00000000       0x1c E:/Tools/Develop/ToolsKits/ARM/arm-gnu-toolchain_v13_3/bin/../lib/gcc/arm-none-eabi/13.3.1/thumb/v7e-m+fp/hard\libc.a(libc_a-findfp.o)
 .text.__fp_unlock
                0x00000000       0x1c E:/Tools/Develop/ToolsKits/ARM/arm-gnu-toolchain_v13_3/bin/../lib/gcc/arm-none-eabi/13.3.1/thumb/v7e-m+fp/hard\libc.a(libc_a-findfp.o)
 .text.__sfp    0x00000000       0xc0 E:/Tools/Develop/ToolsKits/ARM/arm-gnu-toolchain_v13_3/bin/../lib/gcc/arm-none-eabi/13.3.1/thumb/v7e-m+fp/hard\libc.a(libc_a-findfp.o)
 .text.__fp_lock_all
                0x00000000       0x24 E:/Tools/Develop/ToolsKits/ARM/arm-gnu-toolchain_v13_3/bin/../lib/gcc/arm-none-eabi/13.3.1/thumb/v7e-m+fp/hard\libc.a(libc_a-findfp.o)
 .text.__fp_unlock_all
                0x00000000       0x24 E:/Tools/Develop/ToolsKits/ARM/arm-gnu-toolchain_v13_3/bin/../lib/gcc/arm-none-eabi/13.3.1/thumb/v7e-m+fp/hard\libc.a(libc_a-findfp.o)
 .text          0x00000000        0x0 E:/Tools/Develop/ToolsKits/ARM/arm-gnu-toolchain_v13_3/bin/../lib/gcc/arm-none-eabi/13.3.1/thumb/v7e-m+fp/hard\libc.a(libc_a-fwalk.o)
 .data          0x00000000        0x0 E:/Tools/Develop/ToolsKits/ARM/arm-gnu-toolchain_v13_3/bin/../lib/gcc/arm-none-eabi/13.3.1/thumb/v7e-m+fp/hard\libc.a(libc_a-fwalk.o)
 .bss           0x00000000        0x0 E:/Tools/Develop/ToolsKits/ARM/arm-gnu-toolchain_v13_3/bin/../lib/gcc/arm-none-eabi/13.3.1/thumb/v7e-m+fp/hard\libc.a(libc_a-fwalk.o)
 .text          0x00000000        0x0 E:/Tools/Develop/ToolsKits/ARM/arm-gnu-toolchain_v13_3/bin/../lib/gcc/arm-none-eabi/13.3.1/thumb/v7e-m+fp/hard\libc.a(libc_a-printf.o)
 .data          0x00000000        0x0 E:/Tools/Develop/ToolsKits/ARM/arm-gnu-toolchain_v13_3/bin/../lib/gcc/arm-none-eabi/13.3.1/thumb/v7e-m+fp/hard\libc.a(libc_a-printf.o)
 .bss           0x00000000        0x0 E:/Tools/Develop/ToolsKits/ARM/arm-gnu-toolchain_v13_3/bin/../lib/gcc/arm-none-eabi/13.3.1/thumb/v7e-m+fp/hard\libc.a(libc_a-printf.o)
 .text._printf_r
                0x00000000       0x20 E:/Tools/Develop/ToolsKits/ARM/arm-gnu-toolchain_v13_3/bin/../lib/gcc/arm-none-eabi/13.3.1/thumb/v7e-m+fp/hard\libc.a(libc_a-printf.o)
 .text          0x00000000        0x0 E:/Tools/Develop/ToolsKits/ARM/arm-gnu-toolchain_v13_3/bin/../lib/gcc/arm-none-eabi/13.3.1/thumb/v7e-m+fp/hard\libc.a(libc_a-stdio.o)
 .data          0x00000000        0x0 E:/Tools/Develop/ToolsKits/ARM/arm-gnu-toolchain_v13_3/bin/../lib/gcc/arm-none-eabi/13.3.1/thumb/v7e-m+fp/hard\libc.a(libc_a-stdio.o)
 .bss           0x00000000        0x0 E:/Tools/Develop/ToolsKits/ARM/arm-gnu-toolchain_v13_3/bin/../lib/gcc/arm-none-eabi/13.3.1/thumb/v7e-m+fp/hard\libc.a(libc_a-stdio.o)
 .text.__seofread
                0x00000000        0x4 E:/Tools/Develop/ToolsKits/ARM/arm-gnu-toolchain_v13_3/bin/../lib/gcc/arm-none-eabi/13.3.1/thumb/v7e-m+fp/hard\libc.a(libc_a-stdio.o)
 .text          0x00000000        0x0 E:/Tools/Develop/ToolsKits/ARM/arm-gnu-toolchain_v13_3/bin/../lib/gcc/arm-none-eabi/13.3.1/thumb/v7e-m+fp/hard\libc.a(libc_a-memset.o)
 .data          0x00000000        0x0 E:/Tools/Develop/ToolsKits/ARM/arm-gnu-toolchain_v13_3/bin/../lib/gcc/arm-none-eabi/13.3.1/thumb/v7e-m+fp/hard\libc.a(libc_a-memset.o)
 .bss           0x00000000        0x0 E:/Tools/Develop/ToolsKits/ARM/arm-gnu-toolchain_v13_3/bin/../lib/gcc/arm-none-eabi/13.3.1/thumb/v7e-m+fp/hard\libc.a(libc_a-memset.o)
 .text          0x00000000        0x0 E:/Tools/Develop/ToolsKits/ARM/arm-gnu-toolchain_v13_3/bin/../lib/gcc/arm-none-eabi/13.3.1/thumb/v7e-m+fp/hard\libc.a(libc_a-signal.o)
 .data          0x00000000        0x0 E:/Tools/Develop/ToolsKits/ARM/arm-gnu-toolchain_v13_3/bin/../lib/gcc/arm-none-eabi/13.3.1/thumb/v7e-m+fp/hard\libc.a(libc_a-signal.o)
 .bss           0x00000000        0x0 E:/Tools/Develop/ToolsKits/ARM/arm-gnu-toolchain_v13_3/bin/../lib/gcc/arm-none-eabi/13.3.1/thumb/v7e-m+fp/hard\libc.a(libc_a-signal.o)
 .text._init_signal_r
                0x00000000       0x30 E:/Tools/Develop/ToolsKits/ARM/arm-gnu-toolchain_v13_3/bin/../lib/gcc/arm-none-eabi/13.3.1/thumb/v7e-m+fp/hard\libc.a(libc_a-signal.o)
 .text._signal_r
                0x00000000       0x50 E:/Tools/Develop/ToolsKits/ARM/arm-gnu-toolchain_v13_3/bin/../lib/gcc/arm-none-eabi/13.3.1/thumb/v7e-m+fp/hard\libc.a(libc_a-signal.o)
 .text._raise_r
                0x00000000       0x54 E:/Tools/Develop/ToolsKits/ARM/arm-gnu-toolchain_v13_3/bin/../lib/gcc/arm-none-eabi/13.3.1/thumb/v7e-m+fp/hard\libc.a(libc_a-signal.o)
 .text.__sigtramp_r
                0x00000000       0x64 E:/Tools/Develop/ToolsKits/ARM/arm-gnu-toolchain_v13_3/bin/../lib/gcc/arm-none-eabi/13.3.1/thumb/v7e-m+fp/hard\libc.a(libc_a-signal.o)
 .text.signal   0x00000000       0x50 E:/Tools/Develop/ToolsKits/ARM/arm-gnu-toolchain_v13_3/bin/../lib/gcc/arm-none-eabi/13.3.1/thumb/v7e-m+fp/hard\libc.a(libc_a-signal.o)
 .text._init_signal
                0x00000000       0x38 E:/Tools/Develop/ToolsKits/ARM/arm-gnu-toolchain_v13_3/bin/../lib/gcc/arm-none-eabi/13.3.1/thumb/v7e-m+fp/hard\libc.a(libc_a-signal.o)
 .text.__sigtramp
                0x00000000       0x68 E:/Tools/Develop/ToolsKits/ARM/arm-gnu-toolchain_v13_3/bin/../lib/gcc/arm-none-eabi/13.3.1/thumb/v7e-m+fp/hard\libc.a(libc_a-signal.o)
 .text          0x00000000        0x0 E:/Tools/Develop/ToolsKits/ARM/arm-gnu-toolchain_v13_3/bin/../lib/gcc/arm-none-eabi/13.3.1/thumb/v7e-m+fp/hard\libc.a(libc_a-closer.o)
 .data          0x00000000        0x0 E:/Tools/Develop/ToolsKits/ARM/arm-gnu-toolchain_v13_3/bin/../lib/gcc/arm-none-eabi/13.3.1/thumb/v7e-m+fp/hard\libc.a(libc_a-closer.o)
 .bss           0x00000000        0x0 E:/Tools/Develop/ToolsKits/ARM/arm-gnu-toolchain_v13_3/bin/../lib/gcc/arm-none-eabi/13.3.1/thumb/v7e-m+fp/hard\libc.a(libc_a-closer.o)
 .text          0x00000000        0x0 E:/Tools/Develop/ToolsKits/ARM/arm-gnu-toolchain_v13_3/bin/../lib/gcc/arm-none-eabi/13.3.1/thumb/v7e-m+fp/hard\libc.a(libc_a-reent.o)
 .data          0x00000000        0x0 E:/Tools/Develop/ToolsKits/ARM/arm-gnu-toolchain_v13_3/bin/../lib/gcc/arm-none-eabi/13.3.1/thumb/v7e-m+fp/hard\libc.a(libc_a-reent.o)
 .bss           0x00000000        0x0 E:/Tools/Develop/ToolsKits/ARM/arm-gnu-toolchain_v13_3/bin/../lib/gcc/arm-none-eabi/13.3.1/thumb/v7e-m+fp/hard\libc.a(libc_a-reent.o)
 .text._reclaim_reent
                0x00000000       0x6c E:/Tools/Develop/ToolsKits/ARM/arm-gnu-toolchain_v13_3/bin/../lib/gcc/arm-none-eabi/13.3.1/thumb/v7e-m+fp/hard\libc.a(libc_a-reent.o)
 .text          0x00000000        0x0 E:/Tools/Develop/ToolsKits/ARM/arm-gnu-toolchain_v13_3/bin/../lib/gcc/arm-none-eabi/13.3.1/thumb/v7e-m+fp/hard\libc.a(libc_a-impure.o)
 .data          0x00000000        0x0 E:/Tools/Develop/ToolsKits/ARM/arm-gnu-toolchain_v13_3/bin/../lib/gcc/arm-none-eabi/13.3.1/thumb/v7e-m+fp/hard\libc.a(libc_a-impure.o)
 .bss           0x00000000        0x0 E:/Tools/Develop/ToolsKits/ARM/arm-gnu-toolchain_v13_3/bin/../lib/gcc/arm-none-eabi/13.3.1/thumb/v7e-m+fp/hard\libc.a(libc_a-impure.o)
 .text          0x00000000        0x0 E:/Tools/Develop/ToolsKits/ARM/arm-gnu-toolchain_v13_3/bin/../lib/gcc/arm-none-eabi/13.3.1/thumb/v7e-m+fp/hard\libc.a(libc_a-lseekr.o)
 .data          0x00000000        0x0 E:/Tools/Develop/ToolsKits/ARM/arm-gnu-toolchain_v13_3/bin/../lib/gcc/arm-none-eabi/13.3.1/thumb/v7e-m+fp/hard\libc.a(libc_a-lseekr.o)
 .bss           0x00000000        0x0 E:/Tools/Develop/ToolsKits/ARM/arm-gnu-toolchain_v13_3/bin/../lib/gcc/arm-none-eabi/13.3.1/thumb/v7e-m+fp/hard\libc.a(libc_a-lseekr.o)
 .text          0x00000000        0x0 E:/Tools/Develop/ToolsKits/ARM/arm-gnu-toolchain_v13_3/bin/../lib/gcc/arm-none-eabi/13.3.1/thumb/v7e-m+fp/hard\libc.a(libc_a-readr.o)
 .data          0x00000000        0x0 E:/Tools/Develop/ToolsKits/ARM/arm-gnu-toolchain_v13_3/bin/../lib/gcc/arm-none-eabi/13.3.1/thumb/v7e-m+fp/hard\libc.a(libc_a-readr.o)
 .bss           0x00000000        0x0 E:/Tools/Develop/ToolsKits/ARM/arm-gnu-toolchain_v13_3/bin/../lib/gcc/arm-none-eabi/13.3.1/thumb/v7e-m+fp/hard\libc.a(libc_a-readr.o)
 .text          0x00000000        0x0 E:/Tools/Develop/ToolsKits/ARM/arm-gnu-toolchain_v13_3/bin/../lib/gcc/arm-none-eabi/13.3.1/thumb/v7e-m+fp/hard\libc.a(libc_a-signalr.o)
 .data          0x00000000        0x0 E:/Tools/Develop/ToolsKits/ARM/arm-gnu-toolchain_v13_3/bin/../lib/gcc/arm-none-eabi/13.3.1/thumb/v7e-m+fp/hard\libc.a(libc_a-signalr.o)
 .bss           0x00000000        0x0 E:/Tools/Develop/ToolsKits/ARM/arm-gnu-toolchain_v13_3/bin/../lib/gcc/arm-none-eabi/13.3.1/thumb/v7e-m+fp/hard\libc.a(libc_a-signalr.o)
 .text          0x00000000        0x0 E:/Tools/Develop/ToolsKits/ARM/arm-gnu-toolchain_v13_3/bin/../lib/gcc/arm-none-eabi/13.3.1/thumb/v7e-m+fp/hard\libc.a(libc_a-writer.o)
 .data          0x00000000        0x0 E:/Tools/Develop/ToolsKits/ARM/arm-gnu-toolchain_v13_3/bin/../lib/gcc/arm-none-eabi/13.3.1/thumb/v7e-m+fp/hard\libc.a(libc_a-writer.o)
 .bss           0x00000000        0x0 E:/Tools/Develop/ToolsKits/ARM/arm-gnu-toolchain_v13_3/bin/../lib/gcc/arm-none-eabi/13.3.1/thumb/v7e-m+fp/hard\libc.a(libc_a-writer.o)
 .text          0x00000000        0x0 E:/Tools/Develop/ToolsKits/ARM/arm-gnu-toolchain_v13_3/bin/../lib/gcc/arm-none-eabi/13.3.1/thumb/v7e-m+fp/hard\libc.a(libc_a-errno.o)
 .data          0x00000000        0x0 E:/Tools/Develop/ToolsKits/ARM/arm-gnu-toolchain_v13_3/bin/../lib/gcc/arm-none-eabi/13.3.1/thumb/v7e-m+fp/hard\libc.a(libc_a-errno.o)
 .bss           0x00000000        0x0 E:/Tools/Develop/ToolsKits/ARM/arm-gnu-toolchain_v13_3/bin/../lib/gcc/arm-none-eabi/13.3.1/thumb/v7e-m+fp/hard\libc.a(libc_a-errno.o)
 .text          0x00000000        0x0 E:/Tools/Develop/ToolsKits/ARM/arm-gnu-toolchain_v13_3/bin/../lib/gcc/arm-none-eabi/13.3.1/thumb/v7e-m+fp/hard\libc.a(libc_a-init.o)
 .data          0x00000000        0x0 E:/Tools/Develop/ToolsKits/ARM/arm-gnu-toolchain_v13_3/bin/../lib/gcc/arm-none-eabi/13.3.1/thumb/v7e-m+fp/hard\libc.a(libc_a-init.o)
 .bss           0x00000000        0x0 E:/Tools/Develop/ToolsKits/ARM/arm-gnu-toolchain_v13_3/bin/../lib/gcc/arm-none-eabi/13.3.1/thumb/v7e-m+fp/hard\libc.a(libc_a-init.o)
 .text          0x00000000        0x0 E:/Tools/Develop/ToolsKits/ARM/arm-gnu-toolchain_v13_3/bin/../lib/gcc/arm-none-eabi/13.3.1/thumb/v7e-m+fp/hard\libc.a(libc_a-lock.o)
 .data          0x00000000        0x0 E:/Tools/Develop/ToolsKits/ARM/arm-gnu-toolchain_v13_3/bin/../lib/gcc/arm-none-eabi/13.3.1/thumb/v7e-m+fp/hard\libc.a(libc_a-lock.o)
 .bss           0x00000000        0x0 E:/Tools/Develop/ToolsKits/ARM/arm-gnu-toolchain_v13_3/bin/../lib/gcc/arm-none-eabi/13.3.1/thumb/v7e-m+fp/hard\libc.a(libc_a-lock.o)
 .text.__retarget_lock_init
                0x00000000        0x4 E:/Tools/Develop/ToolsKits/ARM/arm-gnu-toolchain_v13_3/bin/../lib/gcc/arm-none-eabi/13.3.1/thumb/v7e-m+fp/hard\libc.a(libc_a-lock.o)
 .text.__retarget_lock_close
                0x00000000        0x4 E:/Tools/Develop/ToolsKits/ARM/arm-gnu-toolchain_v13_3/bin/../lib/gcc/arm-none-eabi/13.3.1/thumb/v7e-m+fp/hard\libc.a(libc_a-lock.o)
 .text.__retarget_lock_acquire
                0x00000000        0x4 E:/Tools/Develop/ToolsKits/ARM/arm-gnu-toolchain_v13_3/bin/../lib/gcc/arm-none-eabi/13.3.1/thumb/v7e-m+fp/hard\libc.a(libc_a-lock.o)
 .text.__retarget_lock_try_acquire
                0x00000000        0x4 E:/Tools/Develop/ToolsKits/ARM/arm-gnu-toolchain_v13_3/bin/../lib/gcc/arm-none-eabi/13.3.1/thumb/v7e-m+fp/hard\libc.a(libc_a-lock.o)
 .text.__retarget_lock_try_acquire_recursive
                0x00000000        0x4 E:/Tools/Develop/ToolsKits/ARM/arm-gnu-toolchain_v13_3/bin/../lib/gcc/arm-none-eabi/13.3.1/thumb/v7e-m+fp/hard\libc.a(libc_a-lock.o)
 .text.__retarget_lock_release
                0x00000000        0x4 E:/Tools/Develop/ToolsKits/ARM/arm-gnu-toolchain_v13_3/bin/../lib/gcc/arm-none-eabi/13.3.1/thumb/v7e-m+fp/hard\libc.a(libc_a-lock.o)
 .bss.__lock___arc4random_mutex
                0x00000000        0x1 E:/Tools/Develop/ToolsKits/ARM/arm-gnu-toolchain_v13_3/bin/../lib/gcc/arm-none-eabi/13.3.1/thumb/v7e-m+fp/hard\libc.a(libc_a-lock.o)
 .bss.__lock___dd_hash_mutex
                0x00000000        0x1 E:/Tools/Develop/ToolsKits/ARM/arm-gnu-toolchain_v13_3/bin/../lib/gcc/arm-none-eabi/13.3.1/thumb/v7e-m+fp/hard\libc.a(libc_a-lock.o)
 .bss.__lock___tz_mutex
                0x00000000        0x1 E:/Tools/Develop/ToolsKits/ARM/arm-gnu-toolchain_v13_3/bin/../lib/gcc/arm-none-eabi/13.3.1/thumb/v7e-m+fp/hard\libc.a(libc_a-lock.o)
 .bss.__lock___env_recursive_mutex
                0x00000000        0x1 E:/Tools/Develop/ToolsKits/ARM/arm-gnu-toolchain_v13_3/bin/../lib/gcc/arm-none-eabi/13.3.1/thumb/v7e-m+fp/hard\libc.a(libc_a-lock.o)
 .bss.__lock___at_quick_exit_mutex
                0x00000000        0x1 E:/Tools/Develop/ToolsKits/ARM/arm-gnu-toolchain_v13_3/bin/../lib/gcc/arm-none-eabi/13.3.1/thumb/v7e-m+fp/hard\libc.a(libc_a-lock.o)
 .data          0x00000000        0x0 E:/Tools/Develop/ToolsKits/ARM/arm-gnu-toolchain_v13_3/bin/../lib/gcc/arm-none-eabi/13.3.1/thumb/v7e-m+fp/hard\libc.a(libc_a-memcpy.o)
 .bss           0x00000000        0x0 E:/Tools/Develop/ToolsKits/ARM/arm-gnu-toolchain_v13_3/bin/../lib/gcc/arm-none-eabi/13.3.1/thumb/v7e-m+fp/hard\libc.a(libc_a-memcpy.o)
 .ARM.extab     0x00000000        0x0 E:/Tools/Develop/ToolsKits/ARM/arm-gnu-toolchain_v13_3/bin/../lib/gcc/arm-none-eabi/13.3.1/thumb/v7e-m+fp/hard\libc.a(libc_a-memcpy.o)
 .eh_frame      0x00000000       0x2c E:/Tools/Develop/ToolsKits/ARM/arm-gnu-toolchain_v13_3/bin/../lib/gcc/arm-none-eabi/13.3.1/thumb/v7e-m+fp/hard\libc.a(libc_a-memcpy.o)
 .text          0x00000000        0x0 E:/Tools/Develop/ToolsKits/ARM/arm-gnu-toolchain_v13_3/bin/../lib/gcc/arm-none-eabi/13.3.1/thumb/v7e-m+fp/hard\libc.a(libc_a-__call_atexit.o)
 .data          0x00000000        0x0 E:/Tools/Develop/ToolsKits/ARM/arm-gnu-toolchain_v13_3/bin/../lib/gcc/arm-none-eabi/13.3.1/thumb/v7e-m+fp/hard\libc.a(libc_a-__call_atexit.o)
 .bss           0x00000000        0x0 E:/Tools/Develop/ToolsKits/ARM/arm-gnu-toolchain_v13_3/bin/../lib/gcc/arm-none-eabi/13.3.1/thumb/v7e-m+fp/hard\libc.a(libc_a-__call_atexit.o)
 .text.__call_exitprocs
                0x00000000       0xc0 E:/Tools/Develop/ToolsKits/ARM/arm-gnu-toolchain_v13_3/bin/../lib/gcc/arm-none-eabi/13.3.1/thumb/v7e-m+fp/hard\libc.a(libc_a-__call_atexit.o)
 .text          0x00000000        0x0 E:/Tools/Develop/ToolsKits/ARM/arm-gnu-toolchain_v13_3/bin/../lib/gcc/arm-none-eabi/13.3.1/thumb/v7e-m+fp/hard\libc.a(libc_a-atexit.o)
 .data          0x00000000        0x0 E:/Tools/Develop/ToolsKits/ARM/arm-gnu-toolchain_v13_3/bin/../lib/gcc/arm-none-eabi/13.3.1/thumb/v7e-m+fp/hard\libc.a(libc_a-atexit.o)
 .bss           0x00000000        0x0 E:/Tools/Develop/ToolsKits/ARM/arm-gnu-toolchain_v13_3/bin/../lib/gcc/arm-none-eabi/13.3.1/thumb/v7e-m+fp/hard\libc.a(libc_a-atexit.o)
 .text          0x00000000        0x0 E:/Tools/Develop/ToolsKits/ARM/arm-gnu-toolchain_v13_3/bin/../lib/gcc/arm-none-eabi/13.3.1/thumb/v7e-m+fp/hard\libc.a(libc_a-freer.o)
 .data          0x00000000        0x0 E:/Tools/Develop/ToolsKits/ARM/arm-gnu-toolchain_v13_3/bin/../lib/gcc/arm-none-eabi/13.3.1/thumb/v7e-m+fp/hard\libc.a(libc_a-freer.o)
 .bss           0x00000000        0x0 E:/Tools/Develop/ToolsKits/ARM/arm-gnu-toolchain_v13_3/bin/../lib/gcc/arm-none-eabi/13.3.1/thumb/v7e-m+fp/hard\libc.a(libc_a-freer.o)
 .text          0x00000000        0x0 E:/Tools/Develop/ToolsKits/ARM/arm-gnu-toolchain_v13_3/bin/../lib/gcc/arm-none-eabi/13.3.1/thumb/v7e-m+fp/hard\libc.a(libc_a-mallocr.o)
 .data          0x00000000        0x0 E:/Tools/Develop/ToolsKits/ARM/arm-gnu-toolchain_v13_3/bin/../lib/gcc/arm-none-eabi/13.3.1/thumb/v7e-m+fp/hard\libc.a(libc_a-mallocr.o)
 .bss           0x00000000        0x0 E:/Tools/Develop/ToolsKits/ARM/arm-gnu-toolchain_v13_3/bin/../lib/gcc/arm-none-eabi/13.3.1/thumb/v7e-m+fp/hard\libc.a(libc_a-mallocr.o)
 .text          0x00000000        0x0 E:/Tools/Develop/ToolsKits/ARM/arm-gnu-toolchain_v13_3/bin/../lib/gcc/arm-none-eabi/13.3.1/thumb/v7e-m+fp/hard\libc.a(libc_a-mlock.o)
 .data          0x00000000        0x0 E:/Tools/Develop/ToolsKits/ARM/arm-gnu-toolchain_v13_3/bin/../lib/gcc/arm-none-eabi/13.3.1/thumb/v7e-m+fp/hard\libc.a(libc_a-mlock.o)
 .bss           0x00000000        0x0 E:/Tools/Develop/ToolsKits/ARM/arm-gnu-toolchain_v13_3/bin/../lib/gcc/arm-none-eabi/13.3.1/thumb/v7e-m+fp/hard\libc.a(libc_a-mlock.o)
 .text          0x00000000        0x0 E:/Tools/Develop/ToolsKits/ARM/arm-gnu-toolchain_v13_3/bin/../lib/gcc/arm-none-eabi/13.3.1/thumb/v7e-m+fp/hard\libc.a(libc_a-vfprintf.o)
 .data          0x00000000        0x0 E:/Tools/Develop/ToolsKits/ARM/arm-gnu-toolchain_v13_3/bin/../lib/gcc/arm-none-eabi/13.3.1/thumb/v7e-m+fp/hard\libc.a(libc_a-vfprintf.o)
 .bss           0x00000000        0x0 E:/Tools/Develop/ToolsKits/ARM/arm-gnu-toolchain_v13_3/bin/../lib/gcc/arm-none-eabi/13.3.1/thumb/v7e-m+fp/hard\libc.a(libc_a-vfprintf.o)
 .text.vfprintf
                0x00000000       0x1c E:/Tools/Develop/ToolsKits/ARM/arm-gnu-toolchain_v13_3/bin/../lib/gcc/arm-none-eabi/13.3.1/thumb/v7e-m+fp/hard\libc.a(libc_a-vfprintf.o)
 .text          0x00000000        0x0 E:/Tools/Develop/ToolsKits/ARM/arm-gnu-toolchain_v13_3/bin/../lib/gcc/arm-none-eabi/13.3.1/thumb/v7e-m+fp/hard\libc.a(libc_a-sprint_r.o)
 .data          0x00000000        0x0 E:/Tools/Develop/ToolsKits/ARM/arm-gnu-toolchain_v13_3/bin/../lib/gcc/arm-none-eabi/13.3.1/thumb/v7e-m+fp/hard\libc.a(libc_a-sprint_r.o)
 .bss           0x00000000        0x0 E:/Tools/Develop/ToolsKits/ARM/arm-gnu-toolchain_v13_3/bin/../lib/gcc/arm-none-eabi/13.3.1/thumb/v7e-m+fp/hard\libc.a(libc_a-sprint_r.o)
 .text          0x00000000        0x0 E:/Tools/Develop/ToolsKits/ARM/arm-gnu-toolchain_v13_3/bin/../lib/gcc/arm-none-eabi/13.3.1/thumb/v7e-m+fp/hard\libc.a(libc_a-fclose.o)
 .data          0x00000000        0x0 E:/Tools/Develop/ToolsKits/ARM/arm-gnu-toolchain_v13_3/bin/../lib/gcc/arm-none-eabi/13.3.1/thumb/v7e-m+fp/hard\libc.a(libc_a-fclose.o)
 .bss           0x00000000        0x0 E:/Tools/Develop/ToolsKits/ARM/arm-gnu-toolchain_v13_3/bin/../lib/gcc/arm-none-eabi/13.3.1/thumb/v7e-m+fp/hard\libc.a(libc_a-fclose.o)
 .text.fclose   0x00000000       0x10 E:/Tools/Develop/ToolsKits/ARM/arm-gnu-toolchain_v13_3/bin/../lib/gcc/arm-none-eabi/13.3.1/thumb/v7e-m+fp/hard\libc.a(libc_a-fclose.o)
 .text          0x00000000        0x0 E:/Tools/Develop/ToolsKits/ARM/arm-gnu-toolchain_v13_3/bin/../lib/gcc/arm-none-eabi/13.3.1/thumb/v7e-m+fp/hard\libc.a(libc_a-fflush.o)
 .data          0x00000000        0x0 E:/Tools/Develop/ToolsKits/ARM/arm-gnu-toolchain_v13_3/bin/../lib/gcc/arm-none-eabi/13.3.1/thumb/v7e-m+fp/hard\libc.a(libc_a-fflush.o)
 .bss           0x00000000        0x0 E:/Tools/Develop/ToolsKits/ARM/arm-gnu-toolchain_v13_3/bin/../lib/gcc/arm-none-eabi/13.3.1/thumb/v7e-m+fp/hard\libc.a(libc_a-fflush.o)
 .text.fflush   0x00000000       0x74 E:/Tools/Develop/ToolsKits/ARM/arm-gnu-toolchain_v13_3/bin/../lib/gcc/arm-none-eabi/13.3.1/thumb/v7e-m+fp/hard\libc.a(libc_a-fflush.o)
 .text          0x00000000        0x0 E:/Tools/Develop/ToolsKits/ARM/arm-gnu-toolchain_v13_3/bin/../lib/gcc/arm-none-eabi/13.3.1/thumb/v7e-m+fp/hard\libc.a(libc_a-fvwrite.o)
 .data          0x00000000        0x0 E:/Tools/Develop/ToolsKits/ARM/arm-gnu-toolchain_v13_3/bin/../lib/gcc/arm-none-eabi/13.3.1/thumb/v7e-m+fp/hard\libc.a(libc_a-fvwrite.o)
 .bss           0x00000000        0x0 E:/Tools/Develop/ToolsKits/ARM/arm-gnu-toolchain_v13_3/bin/../lib/gcc/arm-none-eabi/13.3.1/thumb/v7e-m+fp/hard\libc.a(libc_a-fvwrite.o)
 .text          0x00000000        0x0 E:/Tools/Develop/ToolsKits/ARM/arm-gnu-toolchain_v13_3/bin/../lib/gcc/arm-none-eabi/13.3.1/thumb/v7e-m+fp/hard\libc.a(libc_a-wsetup.o)
 .data          0x00000000        0x0 E:/Tools/Develop/ToolsKits/ARM/arm-gnu-toolchain_v13_3/bin/../lib/gcc/arm-none-eabi/13.3.1/thumb/v7e-m+fp/hard\libc.a(libc_a-wsetup.o)
 .bss           0x00000000        0x0 E:/Tools/Develop/ToolsKits/ARM/arm-gnu-toolchain_v13_3/bin/../lib/gcc/arm-none-eabi/13.3.1/thumb/v7e-m+fp/hard\libc.a(libc_a-wsetup.o)
 .text          0x00000000        0x0 E:/Tools/Develop/ToolsKits/ARM/arm-gnu-toolchain_v13_3/bin/../lib/gcc/arm-none-eabi/13.3.1/thumb/v7e-m+fp/hard\libc.a(libc_a-memmove.o)
 .data          0x00000000        0x0 E:/Tools/Develop/ToolsKits/ARM/arm-gnu-toolchain_v13_3/bin/../lib/gcc/arm-none-eabi/13.3.1/thumb/v7e-m+fp/hard\libc.a(libc_a-memmove.o)
 .bss           0x00000000        0x0 E:/Tools/Develop/ToolsKits/ARM/arm-gnu-toolchain_v13_3/bin/../lib/gcc/arm-none-eabi/13.3.1/thumb/v7e-m+fp/hard\libc.a(libc_a-memmove.o)
 .text          0x00000000        0x0 E:/Tools/Develop/ToolsKits/ARM/arm-gnu-toolchain_v13_3/bin/../lib/gcc/arm-none-eabi/13.3.1/thumb/v7e-m+fp/hard\libc.a(libc_a-strncpy.o)
 .data          0x00000000        0x0 E:/Tools/Develop/ToolsKits/ARM/arm-gnu-toolchain_v13_3/bin/../lib/gcc/arm-none-eabi/13.3.1/thumb/v7e-m+fp/hard\libc.a(libc_a-strncpy.o)
 .bss           0x00000000        0x0 E:/Tools/Develop/ToolsKits/ARM/arm-gnu-toolchain_v13_3/bin/../lib/gcc/arm-none-eabi/13.3.1/thumb/v7e-m+fp/hard\libc.a(libc_a-strncpy.o)
 .text          0x00000000        0x0 E:/Tools/Develop/ToolsKits/ARM/arm-gnu-toolchain_v13_3/bin/../lib/gcc/arm-none-eabi/13.3.1/thumb/v7e-m+fp/hard\libc.a(libc_a-locale.o)
 .data          0x00000000        0x0 E:/Tools/Develop/ToolsKits/ARM/arm-gnu-toolchain_v13_3/bin/../lib/gcc/arm-none-eabi/13.3.1/thumb/v7e-m+fp/hard\libc.a(libc_a-locale.o)
 .bss           0x00000000        0x0 E:/Tools/Develop/ToolsKits/ARM/arm-gnu-toolchain_v13_3/bin/../lib/gcc/arm-none-eabi/13.3.1/thumb/v7e-m+fp/hard\libc.a(libc_a-locale.o)
 .rodata.currentlocale.str1.4
                0x00000000        0x2 E:/Tools/Develop/ToolsKits/ARM/arm-gnu-toolchain_v13_3/bin/../lib/gcc/arm-none-eabi/13.3.1/thumb/v7e-m+fp/hard\libc.a(libc_a-locale.o)
 .text.currentlocale
                0x00000000       0x58 E:/Tools/Develop/ToolsKits/ARM/arm-gnu-toolchain_v13_3/bin/../lib/gcc/arm-none-eabi/13.3.1/thumb/v7e-m+fp/hard\libc.a(libc_a-locale.o)
 .rodata.__loadlocale.str1.4
                0x00000000       0xde E:/Tools/Develop/ToolsKits/ARM/arm-gnu-toolchain_v13_3/bin/../lib/gcc/arm-none-eabi/13.3.1/thumb/v7e-m+fp/hard\libc.a(libc_a-locale.o)
 .text.__loadlocale
                0x00000000      0x6c0 E:/Tools/Develop/ToolsKits/ARM/arm-gnu-toolchain_v13_3/bin/../lib/gcc/arm-none-eabi/13.3.1/thumb/v7e-m+fp/hard\libc.a(libc_a-locale.o)
 .rodata.__get_locale_env.str1.4
                0x00000000        0xd E:/Tools/Develop/ToolsKits/ARM/arm-gnu-toolchain_v13_3/bin/../lib/gcc/arm-none-eabi/13.3.1/thumb/v7e-m+fp/hard\libc.a(libc_a-locale.o)
 .text.__get_locale_env
                0x00000000       0x50 E:/Tools/Develop/ToolsKits/ARM/arm-gnu-toolchain_v13_3/bin/../lib/gcc/arm-none-eabi/13.3.1/thumb/v7e-m+fp/hard\libc.a(libc_a-locale.o)
 .text._setlocale_r
                0x00000000      0x228 E:/Tools/Develop/ToolsKits/ARM/arm-gnu-toolchain_v13_3/bin/../lib/gcc/arm-none-eabi/13.3.1/thumb/v7e-m+fp/hard\libc.a(libc_a-locale.o)
 .text.setlocale
                0x00000000       0x18 E:/Tools/Develop/ToolsKits/ARM/arm-gnu-toolchain_v13_3/bin/../lib/gcc/arm-none-eabi/13.3.1/thumb/v7e-m+fp/hard\libc.a(libc_a-locale.o)
 .bss.saved_categories.0
                0x00000000       0xe0 E:/Tools/Develop/ToolsKits/ARM/arm-gnu-toolchain_v13_3/bin/../lib/gcc/arm-none-eabi/13.3.1/thumb/v7e-m+fp/hard\libc.a(libc_a-locale.o)
 .bss.new_categories.1
                0x00000000       0xe0 E:/Tools/Develop/ToolsKits/ARM/arm-gnu-toolchain_v13_3/bin/../lib/gcc/arm-none-eabi/13.3.1/thumb/v7e-m+fp/hard\libc.a(libc_a-locale.o)
 .data.global_locale_string
                0x00000000       0xe7 E:/Tools/Develop/ToolsKits/ARM/arm-gnu-toolchain_v13_3/bin/../lib/gcc/arm-none-eabi/13.3.1/thumb/v7e-m+fp/hard\libc.a(libc_a-locale.o)
 .rodata.__C_locale
                0x00000000      0x16c E:/Tools/Develop/ToolsKits/ARM/arm-gnu-toolchain_v13_3/bin/../lib/gcc/arm-none-eabi/13.3.1/thumb/v7e-m+fp/hard\libc.a(libc_a-locale.o)
 .data.__default_locale
                0x00000000       0x20 E:/Tools/Develop/ToolsKits/ARM/arm-gnu-toolchain_v13_3/bin/../lib/gcc/arm-none-eabi/13.3.1/thumb/v7e-m+fp/hard\libc.a(libc_a-locale.o)
 .rodata.categories
                0x00000000       0x1c E:/Tools/Develop/ToolsKits/ARM/arm-gnu-toolchain_v13_3/bin/../lib/gcc/arm-none-eabi/13.3.1/thumb/v7e-m+fp/hard\libc.a(libc_a-locale.o)
 .bss._PathLocale
                0x00000000        0x4 E:/Tools/Develop/ToolsKits/ARM/arm-gnu-toolchain_v13_3/bin/../lib/gcc/arm-none-eabi/13.3.1/thumb/v7e-m+fp/hard\libc.a(libc_a-locale.o)
 .text          0x00000000        0x0 E:/Tools/Develop/ToolsKits/ARM/arm-gnu-toolchain_v13_3/bin/../lib/gcc/arm-none-eabi/13.3.1/thumb/v7e-m+fp/hard\libc.a(libc_a-localeconv.o)
 .data          0x00000000        0x0 E:/Tools/Develop/ToolsKits/ARM/arm-gnu-toolchain_v13_3/bin/../lib/gcc/arm-none-eabi/13.3.1/thumb/v7e-m+fp/hard\libc.a(libc_a-localeconv.o)
 .bss           0x00000000        0x0 E:/Tools/Develop/ToolsKits/ARM/arm-gnu-toolchain_v13_3/bin/../lib/gcc/arm-none-eabi/13.3.1/thumb/v7e-m+fp/hard\libc.a(libc_a-localeconv.o)
 .text.__localeconv_l
                0x00000000        0x4 E:/Tools/Develop/ToolsKits/ARM/arm-gnu-toolchain_v13_3/bin/../lib/gcc/arm-none-eabi/13.3.1/thumb/v7e-m+fp/hard\libc.a(libc_a-localeconv.o)
 .text.localeconv
                0x00000000        0x8 E:/Tools/Develop/ToolsKits/ARM/arm-gnu-toolchain_v13_3/bin/../lib/gcc/arm-none-eabi/13.3.1/thumb/v7e-m+fp/hard\libc.a(libc_a-localeconv.o)
 .text          0x00000000        0x0 E:/Tools/Develop/ToolsKits/ARM/arm-gnu-toolchain_v13_3/bin/../lib/gcc/arm-none-eabi/13.3.1/thumb/v7e-m+fp/hard\libc.a(libc_a-sbrkr.o)
 .data          0x00000000        0x0 E:/Tools/Develop/ToolsKits/ARM/arm-gnu-toolchain_v13_3/bin/../lib/gcc/arm-none-eabi/13.3.1/thumb/v7e-m+fp/hard\libc.a(libc_a-sbrkr.o)
 .bss           0x00000000        0x0 E:/Tools/Develop/ToolsKits/ARM/arm-gnu-toolchain_v13_3/bin/../lib/gcc/arm-none-eabi/13.3.1/thumb/v7e-m+fp/hard\libc.a(libc_a-sbrkr.o)
 .text          0x00000000        0x0 E:/Tools/Develop/ToolsKits/ARM/arm-gnu-toolchain_v13_3/bin/../lib/gcc/arm-none-eabi/13.3.1/thumb/v7e-m+fp/hard\libc.a(libc_a-fini.o)
 .data          0x00000000        0x0 E:/Tools/Develop/ToolsKits/ARM/arm-gnu-toolchain_v13_3/bin/../lib/gcc/arm-none-eabi/13.3.1/thumb/v7e-m+fp/hard\libc.a(libc_a-fini.o)
 .bss           0x00000000        0x0 E:/Tools/Develop/ToolsKits/ARM/arm-gnu-toolchain_v13_3/bin/../lib/gcc/arm-none-eabi/13.3.1/thumb/v7e-m+fp/hard\libc.a(libc_a-fini.o)
 .text          0x00000000        0x0 E:/Tools/Develop/ToolsKits/ARM/arm-gnu-toolchain_v13_3/bin/../lib/gcc/arm-none-eabi/13.3.1/thumb/v7e-m+fp/hard\libc.a(libc_a-sysconf.o)
 .data          0x00000000        0x0 E:/Tools/Develop/ToolsKits/ARM/arm-gnu-toolchain_v13_3/bin/../lib/gcc/arm-none-eabi/13.3.1/thumb/v7e-m+fp/hard\libc.a(libc_a-sysconf.o)
 .bss           0x00000000        0x0 E:/Tools/Develop/ToolsKits/ARM/arm-gnu-toolchain_v13_3/bin/../lib/gcc/arm-none-eabi/13.3.1/thumb/v7e-m+fp/hard\libc.a(libc_a-sysconf.o)
 .text          0x00000000      0x2e0 E:/Tools/Develop/ToolsKits/ARM/arm-gnu-toolchain_v13_3/bin/../lib/gcc/arm-none-eabi/13.3.1/thumb/v7e-m+fp/hard\libc.a(libc_a-strcmp.o)
 .data          0x00000000        0x0 E:/Tools/Develop/ToolsKits/ARM/arm-gnu-toolchain_v13_3/bin/../lib/gcc/arm-none-eabi/13.3.1/thumb/v7e-m+fp/hard\libc.a(libc_a-strcmp.o)
 .bss           0x00000000        0x0 E:/Tools/Develop/ToolsKits/ARM/arm-gnu-toolchain_v13_3/bin/../lib/gcc/arm-none-eabi/13.3.1/thumb/v7e-m+fp/hard\libc.a(libc_a-strcmp.o)
 .ARM.extab     0x00000000        0x0 E:/Tools/Develop/ToolsKits/ARM/arm-gnu-toolchain_v13_3/bin/../lib/gcc/arm-none-eabi/13.3.1/thumb/v7e-m+fp/hard\libc.a(libc_a-strcmp.o)
 .ARM.exidx     0x00000000        0x8 E:/Tools/Develop/ToolsKits/ARM/arm-gnu-toolchain_v13_3/bin/../lib/gcc/arm-none-eabi/13.3.1/thumb/v7e-m+fp/hard\libc.a(libc_a-strcmp.o)
 .debug_line_str
                0x00000000       0xe2 E:/Tools/Develop/ToolsKits/ARM/arm-gnu-toolchain_v13_3/bin/../lib/gcc/arm-none-eabi/13.3.1/thumb/v7e-m+fp/hard\libc.a(libc_a-strcmp.o)
 .debug_frame   0x00000000       0x7c E:/Tools/Develop/ToolsKits/ARM/arm-gnu-toolchain_v13_3/bin/../lib/gcc/arm-none-eabi/13.3.1/thumb/v7e-m+fp/hard\libc.a(libc_a-strcmp.o)
 .ARM.attributes
                0x00000000       0x20 E:/Tools/Develop/ToolsKits/ARM/arm-gnu-toolchain_v13_3/bin/../lib/gcc/arm-none-eabi/13.3.1/thumb/v7e-m+fp/hard\libc.a(libc_a-strcmp.o)
 .text          0x00000000        0x0 E:/Tools/Develop/ToolsKits/ARM/arm-gnu-toolchain_v13_3/bin/../lib/gcc/arm-none-eabi/13.3.1/thumb/v7e-m+fp/hard\libc.a(libc_a-strcpy.o)
 .data          0x00000000        0x0 E:/Tools/Develop/ToolsKits/ARM/arm-gnu-toolchain_v13_3/bin/../lib/gcc/arm-none-eabi/13.3.1/thumb/v7e-m+fp/hard\libc.a(libc_a-strcpy.o)
 .bss           0x00000000        0x0 E:/Tools/Develop/ToolsKits/ARM/arm-gnu-toolchain_v13_3/bin/../lib/gcc/arm-none-eabi/13.3.1/thumb/v7e-m+fp/hard\libc.a(libc_a-strcpy.o)
 .text.strcpy   0x00000000       0xbc E:/Tools/Develop/ToolsKits/ARM/arm-gnu-toolchain_v13_3/bin/../lib/gcc/arm-none-eabi/13.3.1/thumb/v7e-m+fp/hard\libc.a(libc_a-strcpy.o)
 .debug_frame   0x00000000       0x20 E:/Tools/Develop/ToolsKits/ARM/arm-gnu-toolchain_v13_3/bin/../lib/gcc/arm-none-eabi/13.3.1/thumb/v7e-m+fp/hard\libc.a(libc_a-strcpy.o)
 .ARM.attributes
                0x00000000       0x34 E:/Tools/Develop/ToolsKits/ARM/arm-gnu-toolchain_v13_3/bin/../lib/gcc/arm-none-eabi/13.3.1/thumb/v7e-m+fp/hard\libc.a(libc_a-strcpy.o)
 .data          0x00000000        0x0 E:/Tools/Develop/ToolsKits/ARM/arm-gnu-toolchain_v13_3/bin/../lib/gcc/arm-none-eabi/13.3.1/thumb/v7e-m+fp/hard\libc.a(libc_a-memchr.o)
 .bss           0x00000000        0x0 E:/Tools/Develop/ToolsKits/ARM/arm-gnu-toolchain_v13_3/bin/../lib/gcc/arm-none-eabi/13.3.1/thumb/v7e-m+fp/hard\libc.a(libc_a-memchr.o)
 .ARM.extab     0x00000000        0x0 E:/Tools/Develop/ToolsKits/ARM/arm-gnu-toolchain_v13_3/bin/../lib/gcc/arm-none-eabi/13.3.1/thumb/v7e-m+fp/hard\libc.a(libc_a-memchr.o)
 .eh_frame      0x00000000       0x50 E:/Tools/Develop/ToolsKits/ARM/arm-gnu-toolchain_v13_3/bin/../lib/gcc/arm-none-eabi/13.3.1/thumb/v7e-m+fp/hard\libc.a(libc_a-memchr.o)
 .data          0x00000000        0x0 E:/Tools/Develop/ToolsKits/ARM/arm-gnu-toolchain_v13_3/bin/../lib/gcc/arm-none-eabi/13.3.1/thumb/v7e-m+fp/hard\libc.a(libc_a-strlen.o)
 .bss           0x00000000        0x0 E:/Tools/Develop/ToolsKits/ARM/arm-gnu-toolchain_v13_3/bin/../lib/gcc/arm-none-eabi/13.3.1/thumb/v7e-m+fp/hard\libc.a(libc_a-strlen.o)
 .ARM.extab     0x00000000        0x0 E:/Tools/Develop/ToolsKits/ARM/arm-gnu-toolchain_v13_3/bin/../lib/gcc/arm-none-eabi/13.3.1/thumb/v7e-m+fp/hard\libc.a(libc_a-strlen.o)
 .eh_frame      0x00000000       0x34 E:/Tools/Develop/ToolsKits/ARM/arm-gnu-toolchain_v13_3/bin/../lib/gcc/arm-none-eabi/13.3.1/thumb/v7e-m+fp/hard\libc.a(libc_a-strlen.o)
 .text          0x00000000        0x0 E:/Tools/Develop/ToolsKits/ARM/arm-gnu-toolchain_v13_3/bin/../lib/gcc/arm-none-eabi/13.3.1/thumb/v7e-m+fp/hard\libc.a(libm_a-s_frexp.o)
 .data          0x00000000        0x0 E:/Tools/Develop/ToolsKits/ARM/arm-gnu-toolchain_v13_3/bin/../lib/gcc/arm-none-eabi/13.3.1/thumb/v7e-m+fp/hard\libc.a(libm_a-s_frexp.o)
 .bss           0x00000000        0x0 E:/Tools/Develop/ToolsKits/ARM/arm-gnu-toolchain_v13_3/bin/../lib/gcc/arm-none-eabi/13.3.1/thumb/v7e-m+fp/hard\libc.a(libm_a-s_frexp.o)
 .text          0x00000000        0x0 E:/Tools/Develop/ToolsKits/ARM/arm-gnu-toolchain_v13_3/bin/../lib/gcc/arm-none-eabi/13.3.1/thumb/v7e-m+fp/hard\libc.a(libc_a-__atexit.o)
 .data          0x00000000        0x0 E:/Tools/Develop/ToolsKits/ARM/arm-gnu-toolchain_v13_3/bin/../lib/gcc/arm-none-eabi/13.3.1/thumb/v7e-m+fp/hard\libc.a(libc_a-__atexit.o)
 .bss           0x00000000        0x0 E:/Tools/Develop/ToolsKits/ARM/arm-gnu-toolchain_v13_3/bin/../lib/gcc/arm-none-eabi/13.3.1/thumb/v7e-m+fp/hard\libc.a(libc_a-__atexit.o)
 .text          0x00000000        0x0 E:/Tools/Develop/ToolsKits/ARM/arm-gnu-toolchain_v13_3/bin/../lib/gcc/arm-none-eabi/13.3.1/thumb/v7e-m+fp/hard\libc.a(libc_a-dtoa.o)
 .data          0x00000000        0x0 E:/Tools/Develop/ToolsKits/ARM/arm-gnu-toolchain_v13_3/bin/../lib/gcc/arm-none-eabi/13.3.1/thumb/v7e-m+fp/hard\libc.a(libc_a-dtoa.o)
 .bss           0x00000000        0x0 E:/Tools/Develop/ToolsKits/ARM/arm-gnu-toolchain_v13_3/bin/../lib/gcc/arm-none-eabi/13.3.1/thumb/v7e-m+fp/hard\libc.a(libc_a-dtoa.o)
 .text          0x00000000        0x0 E:/Tools/Develop/ToolsKits/ARM/arm-gnu-toolchain_v13_3/bin/../lib/gcc/arm-none-eabi/13.3.1/thumb/v7e-m+fp/hard\libc.a(libc_a-getenv_r.o)
 .data          0x00000000        0x0 E:/Tools/Develop/ToolsKits/ARM/arm-gnu-toolchain_v13_3/bin/../lib/gcc/arm-none-eabi/13.3.1/thumb/v7e-m+fp/hard\libc.a(libc_a-getenv_r.o)
 .bss           0x00000000        0x0 E:/Tools/Develop/ToolsKits/ARM/arm-gnu-toolchain_v13_3/bin/../lib/gcc/arm-none-eabi/13.3.1/thumb/v7e-m+fp/hard\libc.a(libc_a-getenv_r.o)
 .text._findenv_r
                0x00000000       0x80 E:/Tools/Develop/ToolsKits/ARM/arm-gnu-toolchain_v13_3/bin/../lib/gcc/arm-none-eabi/13.3.1/thumb/v7e-m+fp/hard\libc.a(libc_a-getenv_r.o)
 .text._getenv_r
                0x00000000       0x10 E:/Tools/Develop/ToolsKits/ARM/arm-gnu-toolchain_v13_3/bin/../lib/gcc/arm-none-eabi/13.3.1/thumb/v7e-m+fp/hard\libc.a(libc_a-getenv_r.o)
 .debug_frame   0x00000000       0x50 E:/Tools/Develop/ToolsKits/ARM/arm-gnu-toolchain_v13_3/bin/../lib/gcc/arm-none-eabi/13.3.1/thumb/v7e-m+fp/hard\libc.a(libc_a-getenv_r.o)
 .ARM.attributes
                0x00000000       0x34 E:/Tools/Develop/ToolsKits/ARM/arm-gnu-toolchain_v13_3/bin/../lib/gcc/arm-none-eabi/13.3.1/thumb/v7e-m+fp/hard\libc.a(libc_a-getenv_r.o)
 .text          0x00000000        0x0 E:/Tools/Develop/ToolsKits/ARM/arm-gnu-toolchain_v13_3/bin/../lib/gcc/arm-none-eabi/13.3.1/thumb/v7e-m+fp/hard\libc.a(libc_a-mbtowc_r.o)
 .data          0x00000000        0x0 E:/Tools/Develop/ToolsKits/ARM/arm-gnu-toolchain_v13_3/bin/../lib/gcc/arm-none-eabi/13.3.1/thumb/v7e-m+fp/hard\libc.a(libc_a-mbtowc_r.o)
 .bss           0x00000000        0x0 E:/Tools/Develop/ToolsKits/ARM/arm-gnu-toolchain_v13_3/bin/../lib/gcc/arm-none-eabi/13.3.1/thumb/v7e-m+fp/hard\libc.a(libc_a-mbtowc_r.o)
 .text._mbtowc_r
                0x00000000       0x14 E:/Tools/Develop/ToolsKits/ARM/arm-gnu-toolchain_v13_3/bin/../lib/gcc/arm-none-eabi/13.3.1/thumb/v7e-m+fp/hard\libc.a(libc_a-mbtowc_r.o)
 .text.__utf8_mbtowc
                0x00000000      0x1d4 E:/Tools/Develop/ToolsKits/ARM/arm-gnu-toolchain_v13_3/bin/../lib/gcc/arm-none-eabi/13.3.1/thumb/v7e-m+fp/hard\libc.a(libc_a-mbtowc_r.o)
 .text.__sjis_mbtowc
                0x00000000       0x90 E:/Tools/Develop/ToolsKits/ARM/arm-gnu-toolchain_v13_3/bin/../lib/gcc/arm-none-eabi/13.3.1/thumb/v7e-m+fp/hard\libc.a(libc_a-mbtowc_r.o)
 .text.__eucjp_mbtowc
                0x00000000       0xc0 E:/Tools/Develop/ToolsKits/ARM/arm-gnu-toolchain_v13_3/bin/../lib/gcc/arm-none-eabi/13.3.1/thumb/v7e-m+fp/hard\libc.a(libc_a-mbtowc_r.o)
 .text.__jis_mbtowc
                0x00000000      0x140 E:/Tools/Develop/ToolsKits/ARM/arm-gnu-toolchain_v13_3/bin/../lib/gcc/arm-none-eabi/13.3.1/thumb/v7e-m+fp/hard\libc.a(libc_a-mbtowc_r.o)
 .rodata.JIS_action_table
                0x00000000       0x48 E:/Tools/Develop/ToolsKits/ARM/arm-gnu-toolchain_v13_3/bin/../lib/gcc/arm-none-eabi/13.3.1/thumb/v7e-m+fp/hard\libc.a(libc_a-mbtowc_r.o)
 .rodata.JIS_state_table
                0x00000000       0x48 E:/Tools/Develop/ToolsKits/ARM/arm-gnu-toolchain_v13_3/bin/../lib/gcc/arm-none-eabi/13.3.1/thumb/v7e-m+fp/hard\libc.a(libc_a-mbtowc_r.o)
 .text          0x00000000        0x0 E:/Tools/Develop/ToolsKits/ARM/arm-gnu-toolchain_v13_3/bin/../lib/gcc/arm-none-eabi/13.3.1/thumb/v7e-m+fp/hard\libc.a(libc_a-mprec.o)
 .data          0x00000000        0x0 E:/Tools/Develop/ToolsKits/ARM/arm-gnu-toolchain_v13_3/bin/../lib/gcc/arm-none-eabi/13.3.1/thumb/v7e-m+fp/hard\libc.a(libc_a-mprec.o)
 .bss           0x00000000        0x0 E:/Tools/Develop/ToolsKits/ARM/arm-gnu-toolchain_v13_3/bin/../lib/gcc/arm-none-eabi/13.3.1/thumb/v7e-m+fp/hard\libc.a(libc_a-mprec.o)
 .text.__s2b    0x00000000       0xb4 E:/Tools/Develop/ToolsKits/ARM/arm-gnu-toolchain_v13_3/bin/../lib/gcc/arm-none-eabi/13.3.1/thumb/v7e-m+fp/hard\libc.a(libc_a-mprec.o)
 .text.__ulp    0x00000000       0x64 E:/Tools/Develop/ToolsKits/ARM/arm-gnu-toolchain_v13_3/bin/../lib/gcc/arm-none-eabi/13.3.1/thumb/v7e-m+fp/hard\libc.a(libc_a-mprec.o)
 .text.__b2d    0x00000000       0xbc E:/Tools/Develop/ToolsKits/ARM/arm-gnu-toolchain_v13_3/bin/../lib/gcc/arm-none-eabi/13.3.1/thumb/v7e-m+fp/hard\libc.a(libc_a-mprec.o)
 .text.__ratio  0x00000000       0x60 E:/Tools/Develop/ToolsKits/ARM/arm-gnu-toolchain_v13_3/bin/../lib/gcc/arm-none-eabi/13.3.1/thumb/v7e-m+fp/hard\libc.a(libc_a-mprec.o)
 .text._mprec_log10
                0x00000000       0x40 E:/Tools/Develop/ToolsKits/ARM/arm-gnu-toolchain_v13_3/bin/../lib/gcc/arm-none-eabi/13.3.1/thumb/v7e-m+fp/hard\libc.a(libc_a-mprec.o)
 .text.__copybits
                0x00000000       0x5c E:/Tools/Develop/ToolsKits/ARM/arm-gnu-toolchain_v13_3/bin/../lib/gcc/arm-none-eabi/13.3.1/thumb/v7e-m+fp/hard\libc.a(libc_a-mprec.o)
 .text.__any_on
                0x00000000       0x5c E:/Tools/Develop/ToolsKits/ARM/arm-gnu-toolchain_v13_3/bin/../lib/gcc/arm-none-eabi/13.3.1/thumb/v7e-m+fp/hard\libc.a(libc_a-mprec.o)
 .rodata.__mprec_tinytens
                0x00000000       0x28 E:/Tools/Develop/ToolsKits/ARM/arm-gnu-toolchain_v13_3/bin/../lib/gcc/arm-none-eabi/13.3.1/thumb/v7e-m+fp/hard\libc.a(libc_a-mprec.o)
 .text          0x00000000        0x0 E:/Tools/Develop/ToolsKits/ARM/arm-gnu-toolchain_v13_3/bin/../lib/gcc/arm-none-eabi/13.3.1/thumb/v7e-m+fp/hard\libc.a(libc_a-reallocr.o)
 .data          0x00000000        0x0 E:/Tools/Develop/ToolsKits/ARM/arm-gnu-toolchain_v13_3/bin/../lib/gcc/arm-none-eabi/13.3.1/thumb/v7e-m+fp/hard\libc.a(libc_a-reallocr.o)
 .bss           0x00000000        0x0 E:/Tools/Develop/ToolsKits/ARM/arm-gnu-toolchain_v13_3/bin/../lib/gcc/arm-none-eabi/13.3.1/thumb/v7e-m+fp/hard\libc.a(libc_a-reallocr.o)
 .text          0x00000000        0x0 E:/Tools/Develop/ToolsKits/ARM/arm-gnu-toolchain_v13_3/bin/../lib/gcc/arm-none-eabi/13.3.1/thumb/v7e-m+fp/hard\libc.a(libc_a-strtol.o)
 .data          0x00000000        0x0 E:/Tools/Develop/ToolsKits/ARM/arm-gnu-toolchain_v13_3/bin/../lib/gcc/arm-none-eabi/13.3.1/thumb/v7e-m+fp/hard\libc.a(libc_a-strtol.o)
 .bss           0x00000000        0x0 E:/Tools/Develop/ToolsKits/ARM/arm-gnu-toolchain_v13_3/bin/../lib/gcc/arm-none-eabi/13.3.1/thumb/v7e-m+fp/hard\libc.a(libc_a-strtol.o)
 .text._strtol_l.isra.0
                0x00000000      0x138 E:/Tools/Develop/ToolsKits/ARM/arm-gnu-toolchain_v13_3/bin/../lib/gcc/arm-none-eabi/13.3.1/thumb/v7e-m+fp/hard\libc.a(libc_a-strtol.o)
 .text._strtol_r
                0x00000000        0x4 E:/Tools/Develop/ToolsKits/ARM/arm-gnu-toolchain_v13_3/bin/../lib/gcc/arm-none-eabi/13.3.1/thumb/v7e-m+fp/hard\libc.a(libc_a-strtol.o)
 .text.strtol_l
                0x00000000       0x1c E:/Tools/Develop/ToolsKits/ARM/arm-gnu-toolchain_v13_3/bin/../lib/gcc/arm-none-eabi/13.3.1/thumb/v7e-m+fp/hard\libc.a(libc_a-strtol.o)
 .text.strtol   0x00000000       0x1c E:/Tools/Develop/ToolsKits/ARM/arm-gnu-toolchain_v13_3/bin/../lib/gcc/arm-none-eabi/13.3.1/thumb/v7e-m+fp/hard\libc.a(libc_a-strtol.o)
 .debug_frame   0x00000000       0x80 E:/Tools/Develop/ToolsKits/ARM/arm-gnu-toolchain_v13_3/bin/../lib/gcc/arm-none-eabi/13.3.1/thumb/v7e-m+fp/hard\libc.a(libc_a-strtol.o)
 .ARM.attributes
                0x00000000       0x34 E:/Tools/Develop/ToolsKits/ARM/arm-gnu-toolchain_v13_3/bin/../lib/gcc/arm-none-eabi/13.3.1/thumb/v7e-m+fp/hard\libc.a(libc_a-strtol.o)
 .text          0x00000000        0x0 E:/Tools/Develop/ToolsKits/ARM/arm-gnu-toolchain_v13_3/bin/../lib/gcc/arm-none-eabi/13.3.1/thumb/v7e-m+fp/hard\libc.a(libc_a-wctomb_r.o)
 .data          0x00000000        0x0 E:/Tools/Develop/ToolsKits/ARM/arm-gnu-toolchain_v13_3/bin/../lib/gcc/arm-none-eabi/13.3.1/thumb/v7e-m+fp/hard\libc.a(libc_a-wctomb_r.o)
 .bss           0x00000000        0x0 E:/Tools/Develop/ToolsKits/ARM/arm-gnu-toolchain_v13_3/bin/../lib/gcc/arm-none-eabi/13.3.1/thumb/v7e-m+fp/hard\libc.a(libc_a-wctomb_r.o)
 .text._wctomb_r
                0x00000000       0x14 E:/Tools/Develop/ToolsKits/ARM/arm-gnu-toolchain_v13_3/bin/../lib/gcc/arm-none-eabi/13.3.1/thumb/v7e-m+fp/hard\libc.a(libc_a-wctomb_r.o)
 .text.__utf8_wctomb
                0x00000000       0x9c E:/Tools/Develop/ToolsKits/ARM/arm-gnu-toolchain_v13_3/bin/../lib/gcc/arm-none-eabi/13.3.1/thumb/v7e-m+fp/hard\libc.a(libc_a-wctomb_r.o)
 .text.__sjis_wctomb
                0x00000000       0x58 E:/Tools/Develop/ToolsKits/ARM/arm-gnu-toolchain_v13_3/bin/../lib/gcc/arm-none-eabi/13.3.1/thumb/v7e-m+fp/hard\libc.a(libc_a-wctomb_r.o)
 .text.__eucjp_wctomb
                0x00000000       0x7c E:/Tools/Develop/ToolsKits/ARM/arm-gnu-toolchain_v13_3/bin/../lib/gcc/arm-none-eabi/13.3.1/thumb/v7e-m+fp/hard\libc.a(libc_a-wctomb_r.o)
 .text.__jis_wctomb
                0x00000000       0x7c E:/Tools/Develop/ToolsKits/ARM/arm-gnu-toolchain_v13_3/bin/../lib/gcc/arm-none-eabi/13.3.1/thumb/v7e-m+fp/hard\libc.a(libc_a-wctomb_r.o)
 .text          0x00000000        0x0 E:/Tools/Develop/ToolsKits/ARM/arm-gnu-toolchain_v13_3/bin/../lib/gcc/arm-none-eabi/13.3.1/thumb/v7e-m+fp/hard\libc.a(libc_a-wcrtomb.o)
 .data          0x00000000        0x0 E:/Tools/Develop/ToolsKits/ARM/arm-gnu-toolchain_v13_3/bin/../lib/gcc/arm-none-eabi/13.3.1/thumb/v7e-m+fp/hard\libc.a(libc_a-wcrtomb.o)
 .bss           0x00000000        0x0 E:/Tools/Develop/ToolsKits/ARM/arm-gnu-toolchain_v13_3/bin/../lib/gcc/arm-none-eabi/13.3.1/thumb/v7e-m+fp/hard\libc.a(libc_a-wcrtomb.o)
 .text.wcrtomb  0x00000000       0x58 E:/Tools/Develop/ToolsKits/ARM/arm-gnu-toolchain_v13_3/bin/../lib/gcc/arm-none-eabi/13.3.1/thumb/v7e-m+fp/hard\libc.a(libc_a-wcrtomb.o)
 .text          0x00000000        0x0 E:/Tools/Develop/ToolsKits/ARM/arm-gnu-toolchain_v13_3/bin/../lib/gcc/arm-none-eabi/13.3.1/thumb/v7e-m+fp/hard\libc.a(libc_a-wcsrtombs.o)
 .data          0x00000000        0x0 E:/Tools/Develop/ToolsKits/ARM/arm-gnu-toolchain_v13_3/bin/../lib/gcc/arm-none-eabi/13.3.1/thumb/v7e-m+fp/hard\libc.a(libc_a-wcsrtombs.o)
 .bss           0x00000000        0x0 E:/Tools/Develop/ToolsKits/ARM/arm-gnu-toolchain_v13_3/bin/../lib/gcc/arm-none-eabi/13.3.1/thumb/v7e-m+fp/hard\libc.a(libc_a-wcsrtombs.o)
 .text.wcsrtombs
                0x00000000       0x24 E:/Tools/Develop/ToolsKits/ARM/arm-gnu-toolchain_v13_3/bin/../lib/gcc/arm-none-eabi/13.3.1/thumb/v7e-m+fp/hard\libc.a(libc_a-wcsrtombs.o)
 .text          0x00000000        0x0 E:/Tools/Develop/ToolsKits/ARM/arm-gnu-toolchain_v13_3/bin/../lib/gcc/arm-none-eabi/13.3.1/thumb/v7e-m+fp/hard\libc.a(libc_a-ctype_.o)
 .data          0x00000000        0x0 E:/Tools/Develop/ToolsKits/ARM/arm-gnu-toolchain_v13_3/bin/../lib/gcc/arm-none-eabi/13.3.1/thumb/v7e-m+fp/hard\libc.a(libc_a-ctype_.o)
 .bss           0x00000000        0x0 E:/Tools/Develop/ToolsKits/ARM/arm-gnu-toolchain_v13_3/bin/../lib/gcc/arm-none-eabi/13.3.1/thumb/v7e-m+fp/hard\libc.a(libc_a-ctype_.o)
 .text.__set_ctype
                0x00000000        0xc E:/Tools/Develop/ToolsKits/ARM/arm-gnu-toolchain_v13_3/bin/../lib/gcc/arm-none-eabi/13.3.1/thumb/v7e-m+fp/hard\libc.a(libc_a-ctype_.o)
 .text          0x00000000        0x0 E:/Tools/Develop/ToolsKits/ARM/arm-gnu-toolchain_v13_3/bin/../lib/gcc/arm-none-eabi/13.3.1/thumb/v7e-m+fp/hard\libc.a(libc_a-makebuf.o)
 .data          0x00000000        0x0 E:/Tools/Develop/ToolsKits/ARM/arm-gnu-toolchain_v13_3/bin/../lib/gcc/arm-none-eabi/13.3.1/thumb/v7e-m+fp/hard\libc.a(libc_a-makebuf.o)
 .bss           0x00000000        0x0 E:/Tools/Develop/ToolsKits/ARM/arm-gnu-toolchain_v13_3/bin/../lib/gcc/arm-none-eabi/13.3.1/thumb/v7e-m+fp/hard\libc.a(libc_a-makebuf.o)
 .text.__swhatbuf_r
                0x00000000       0x60 E:/Tools/Develop/ToolsKits/ARM/arm-gnu-toolchain_v13_3/bin/../lib/gcc/arm-none-eabi/13.3.1/thumb/v7e-m+fp/hard\libc.a(libc_a-makebuf.o)
 .text          0x00000000        0x0 E:/Tools/Develop/ToolsKits/ARM/arm-gnu-toolchain_v13_3/bin/../lib/gcc/arm-none-eabi/13.3.1/thumb/v7e-m+fp/hard\libc.a(libc_a-strcasecmp.o)
 .data          0x00000000        0x0 E:/Tools/Develop/ToolsKits/ARM/arm-gnu-toolchain_v13_3/bin/../lib/gcc/arm-none-eabi/13.3.1/thumb/v7e-m+fp/hard\libc.a(libc_a-strcasecmp.o)
 .bss           0x00000000        0x0 E:/Tools/Develop/ToolsKits/ARM/arm-gnu-toolchain_v13_3/bin/../lib/gcc/arm-none-eabi/13.3.1/thumb/v7e-m+fp/hard\libc.a(libc_a-strcasecmp.o)
 .text.strcasecmp
                0x00000000       0x4c E:/Tools/Develop/ToolsKits/ARM/arm-gnu-toolchain_v13_3/bin/../lib/gcc/arm-none-eabi/13.3.1/thumb/v7e-m+fp/hard\libc.a(libc_a-strcasecmp.o)
 .debug_frame   0x00000000       0x38 E:/Tools/Develop/ToolsKits/ARM/arm-gnu-toolchain_v13_3/bin/../lib/gcc/arm-none-eabi/13.3.1/thumb/v7e-m+fp/hard\libc.a(libc_a-strcasecmp.o)
 .ARM.attributes
                0x00000000       0x34 E:/Tools/Develop/ToolsKits/ARM/arm-gnu-toolchain_v13_3/bin/../lib/gcc/arm-none-eabi/13.3.1/thumb/v7e-m+fp/hard\libc.a(libc_a-strcasecmp.o)
 .text          0x00000000        0x0 E:/Tools/Develop/ToolsKits/ARM/arm-gnu-toolchain_v13_3/bin/../lib/gcc/arm-none-eabi/13.3.1/thumb/v7e-m+fp/hard\libc.a(libc_a-strcat.o)
 .data          0x00000000        0x0 E:/Tools/Develop/ToolsKits/ARM/arm-gnu-toolchain_v13_3/bin/../lib/gcc/arm-none-eabi/13.3.1/thumb/v7e-m+fp/hard\libc.a(libc_a-strcat.o)
 .bss           0x00000000        0x0 E:/Tools/Develop/ToolsKits/ARM/arm-gnu-toolchain_v13_3/bin/../lib/gcc/arm-none-eabi/13.3.1/thumb/v7e-m+fp/hard\libc.a(libc_a-strcat.o)
 .text.strcat   0x00000000       0x40 E:/Tools/Develop/ToolsKits/ARM/arm-gnu-toolchain_v13_3/bin/../lib/gcc/arm-none-eabi/13.3.1/thumb/v7e-m+fp/hard\libc.a(libc_a-strcat.o)
 .debug_frame   0x00000000       0x28 E:/Tools/Develop/ToolsKits/ARM/arm-gnu-toolchain_v13_3/bin/../lib/gcc/arm-none-eabi/13.3.1/thumb/v7e-m+fp/hard\libc.a(libc_a-strcat.o)
 .ARM.attributes
                0x00000000       0x34 E:/Tools/Develop/ToolsKits/ARM/arm-gnu-toolchain_v13_3/bin/../lib/gcc/arm-none-eabi/13.3.1/thumb/v7e-m+fp/hard\libc.a(libc_a-strcat.o)
 .text          0x00000000        0x0 E:/Tools/Develop/ToolsKits/ARM/arm-gnu-toolchain_v13_3/bin/../lib/gcc/arm-none-eabi/13.3.1/thumb/v7e-m+fp/hard\libc.a(libc_a-strchr.o)
 .data          0x00000000        0x0 E:/Tools/Develop/ToolsKits/ARM/arm-gnu-toolchain_v13_3/bin/../lib/gcc/arm-none-eabi/13.3.1/thumb/v7e-m+fp/hard\libc.a(libc_a-strchr.o)
 .bss           0x00000000        0x0 E:/Tools/Develop/ToolsKits/ARM/arm-gnu-toolchain_v13_3/bin/../lib/gcc/arm-none-eabi/13.3.1/thumb/v7e-m+fp/hard\libc.a(libc_a-strchr.o)
 .text.strchr   0x00000000       0xd0 E:/Tools/Develop/ToolsKits/ARM/arm-gnu-toolchain_v13_3/bin/../lib/gcc/arm-none-eabi/13.3.1/thumb/v7e-m+fp/hard\libc.a(libc_a-strchr.o)
 .debug_frame   0x00000000       0x34 E:/Tools/Develop/ToolsKits/ARM/arm-gnu-toolchain_v13_3/bin/../lib/gcc/arm-none-eabi/13.3.1/thumb/v7e-m+fp/hard\libc.a(libc_a-strchr.o)
 .ARM.attributes
                0x00000000       0x34 E:/Tools/Develop/ToolsKits/ARM/arm-gnu-toolchain_v13_3/bin/../lib/gcc/arm-none-eabi/13.3.1/thumb/v7e-m+fp/hard\libc.a(libc_a-strchr.o)
 .text          0x00000000        0x0 E:/Tools/Develop/ToolsKits/ARM/arm-gnu-toolchain_v13_3/bin/../lib/gcc/arm-none-eabi/13.3.1/thumb/v7e-m+fp/hard\libc.a(libc_a-strlcpy.o)
 .data          0x00000000        0x0 E:/Tools/Develop/ToolsKits/ARM/arm-gnu-toolchain_v13_3/bin/../lib/gcc/arm-none-eabi/13.3.1/thumb/v7e-m+fp/hard\libc.a(libc_a-strlcpy.o)
 .bss           0x00000000        0x0 E:/Tools/Develop/ToolsKits/ARM/arm-gnu-toolchain_v13_3/bin/../lib/gcc/arm-none-eabi/13.3.1/thumb/v7e-m+fp/hard\libc.a(libc_a-strlcpy.o)
 .text.strlcpy  0x00000000       0x4c E:/Tools/Develop/ToolsKits/ARM/arm-gnu-toolchain_v13_3/bin/../lib/gcc/arm-none-eabi/13.3.1/thumb/v7e-m+fp/hard\libc.a(libc_a-strlcpy.o)
 .debug_frame   0x00000000       0x30 E:/Tools/Develop/ToolsKits/ARM/arm-gnu-toolchain_v13_3/bin/../lib/gcc/arm-none-eabi/13.3.1/thumb/v7e-m+fp/hard\libc.a(libc_a-strlcpy.o)
 .ARM.attributes
                0x00000000       0x34 E:/Tools/Develop/ToolsKits/ARM/arm-gnu-toolchain_v13_3/bin/../lib/gcc/arm-none-eabi/13.3.1/thumb/v7e-m+fp/hard\libc.a(libc_a-strlcpy.o)
 .text          0x00000000        0x0 E:/Tools/Develop/ToolsKits/ARM/arm-gnu-toolchain_v13_3/bin/../lib/gcc/arm-none-eabi/13.3.1/thumb/v7e-m+fp/hard\libc.a(libc_a-strncasecmp.o)
 .data          0x00000000        0x0 E:/Tools/Develop/ToolsKits/ARM/arm-gnu-toolchain_v13_3/bin/../lib/gcc/arm-none-eabi/13.3.1/thumb/v7e-m+fp/hard\libc.a(libc_a-strncasecmp.o)
 .bss           0x00000000        0x0 E:/Tools/Develop/ToolsKits/ARM/arm-gnu-toolchain_v13_3/bin/../lib/gcc/arm-none-eabi/13.3.1/thumb/v7e-m+fp/hard\libc.a(libc_a-strncasecmp.o)
 .text.strncasecmp
                0x00000000       0x54 E:/Tools/Develop/ToolsKits/ARM/arm-gnu-toolchain_v13_3/bin/../lib/gcc/arm-none-eabi/13.3.1/thumb/v7e-m+fp/hard\libc.a(libc_a-strncasecmp.o)
 .debug_frame   0x00000000       0x2c E:/Tools/Develop/ToolsKits/ARM/arm-gnu-toolchain_v13_3/bin/../lib/gcc/arm-none-eabi/13.3.1/thumb/v7e-m+fp/hard\libc.a(libc_a-strncasecmp.o)
 .ARM.attributes
                0x00000000       0x34 E:/Tools/Develop/ToolsKits/ARM/arm-gnu-toolchain_v13_3/bin/../lib/gcc/arm-none-eabi/13.3.1/thumb/v7e-m+fp/hard\libc.a(libc_a-strncasecmp.o)
 .text          0x00000000        0x0 E:/Tools/Develop/ToolsKits/ARM/arm-gnu-toolchain_v13_3/bin/../lib/gcc/arm-none-eabi/13.3.1/thumb/v7e-m+fp/hard\libc.a(libc_a-strncmp.o)
 .data          0x00000000        0x0 E:/Tools/Develop/ToolsKits/ARM/arm-gnu-toolchain_v13_3/bin/../lib/gcc/arm-none-eabi/13.3.1/thumb/v7e-m+fp/hard\libc.a(libc_a-strncmp.o)
 .bss           0x00000000        0x0 E:/Tools/Develop/ToolsKits/ARM/arm-gnu-toolchain_v13_3/bin/../lib/gcc/arm-none-eabi/13.3.1/thumb/v7e-m+fp/hard\libc.a(libc_a-strncmp.o)
 .text.strncmp  0x00000000       0x8c E:/Tools/Develop/ToolsKits/ARM/arm-gnu-toolchain_v13_3/bin/../lib/gcc/arm-none-eabi/13.3.1/thumb/v7e-m+fp/hard\libc.a(libc_a-strncmp.o)
 .debug_frame   0x00000000       0x38 E:/Tools/Develop/ToolsKits/ARM/arm-gnu-toolchain_v13_3/bin/../lib/gcc/arm-none-eabi/13.3.1/thumb/v7e-m+fp/hard\libc.a(libc_a-strncmp.o)
 .ARM.attributes
                0x00000000       0x34 E:/Tools/Develop/ToolsKits/ARM/arm-gnu-toolchain_v13_3/bin/../lib/gcc/arm-none-eabi/13.3.1/thumb/v7e-m+fp/hard\libc.a(libc_a-strncmp.o)
 .text          0x00000000        0x0 E:/Tools/Develop/ToolsKits/ARM/arm-gnu-toolchain_v13_3/bin/../lib/gcc/arm-none-eabi/13.3.1/thumb/v7e-m+fp/hard\libc.a(libc_a-fstatr.o)
 .data          0x00000000        0x0 E:/Tools/Develop/ToolsKits/ARM/arm-gnu-toolchain_v13_3/bin/../lib/gcc/arm-none-eabi/13.3.1/thumb/v7e-m+fp/hard\libc.a(libc_a-fstatr.o)
 .bss           0x00000000        0x0 E:/Tools/Develop/ToolsKits/ARM/arm-gnu-toolchain_v13_3/bin/../lib/gcc/arm-none-eabi/13.3.1/thumb/v7e-m+fp/hard\libc.a(libc_a-fstatr.o)
 .text          0x00000000        0x0 E:/Tools/Develop/ToolsKits/ARM/arm-gnu-toolchain_v13_3/bin/../lib/gcc/arm-none-eabi/13.3.1/thumb/v7e-m+fp/hard\libc.a(libc_a-isattyr.o)
 .data          0x00000000        0x0 E:/Tools/Develop/ToolsKits/ARM/arm-gnu-toolchain_v13_3/bin/../lib/gcc/arm-none-eabi/13.3.1/thumb/v7e-m+fp/hard\libc.a(libc_a-isattyr.o)
 .bss           0x00000000        0x0 E:/Tools/Develop/ToolsKits/ARM/arm-gnu-toolchain_v13_3/bin/../lib/gcc/arm-none-eabi/13.3.1/thumb/v7e-m+fp/hard\libc.a(libc_a-isattyr.o)
 .text          0x00000000        0x0 E:/Tools/Develop/ToolsKits/ARM/arm-gnu-toolchain_v13_3/bin/../lib/gcc/arm-none-eabi/13.3.1/thumb/v7e-m+fp/hard\libc.a(libc_a-assert.o)
 .data          0x00000000        0x0 E:/Tools/Develop/ToolsKits/ARM/arm-gnu-toolchain_v13_3/bin/../lib/gcc/arm-none-eabi/13.3.1/thumb/v7e-m+fp/hard\libc.a(libc_a-assert.o)
 .bss           0x00000000        0x0 E:/Tools/Develop/ToolsKits/ARM/arm-gnu-toolchain_v13_3/bin/../lib/gcc/arm-none-eabi/13.3.1/thumb/v7e-m+fp/hard\libc.a(libc_a-assert.o)
 .text.__assert
                0x00000000        0xc E:/Tools/Develop/ToolsKits/ARM/arm-gnu-toolchain_v13_3/bin/../lib/gcc/arm-none-eabi/13.3.1/thumb/v7e-m+fp/hard\libc.a(libc_a-assert.o)
 .text          0x00000000        0x0 E:/Tools/Develop/ToolsKits/ARM/arm-gnu-toolchain_v13_3/bin/../lib/gcc/arm-none-eabi/13.3.1/thumb/v7e-m+fp/hard\libc.a(libc_a-callocr.o)
 .data          0x00000000        0x0 E:/Tools/Develop/ToolsKits/ARM/arm-gnu-toolchain_v13_3/bin/../lib/gcc/arm-none-eabi/13.3.1/thumb/v7e-m+fp/hard\libc.a(libc_a-callocr.o)
 .bss           0x00000000        0x0 E:/Tools/Develop/ToolsKits/ARM/arm-gnu-toolchain_v13_3/bin/../lib/gcc/arm-none-eabi/13.3.1/thumb/v7e-m+fp/hard\libc.a(libc_a-callocr.o)
 .text          0x00000000        0x0 E:/Tools/Develop/ToolsKits/ARM/arm-gnu-toolchain_v13_3/bin/../lib/gcc/arm-none-eabi/13.3.1/thumb/v7e-m+fp/hard\libc.a(libc_a-envlock.o)
 .data          0x00000000        0x0 E:/Tools/Develop/ToolsKits/ARM/arm-gnu-toolchain_v13_3/bin/../lib/gcc/arm-none-eabi/13.3.1/thumb/v7e-m+fp/hard\libc.a(libc_a-envlock.o)
 .bss           0x00000000        0x0 E:/Tools/Develop/ToolsKits/ARM/arm-gnu-toolchain_v13_3/bin/../lib/gcc/arm-none-eabi/13.3.1/thumb/v7e-m+fp/hard\libc.a(libc_a-envlock.o)
 .text.__env_lock
                0x00000000        0xc E:/Tools/Develop/ToolsKits/ARM/arm-gnu-toolchain_v13_3/bin/../lib/gcc/arm-none-eabi/13.3.1/thumb/v7e-m+fp/hard\libc.a(libc_a-envlock.o)
 .text.__env_unlock
                0x00000000        0xc E:/Tools/Develop/ToolsKits/ARM/arm-gnu-toolchain_v13_3/bin/../lib/gcc/arm-none-eabi/13.3.1/thumb/v7e-m+fp/hard\libc.a(libc_a-envlock.o)
 .debug_frame   0x00000000       0x30 E:/Tools/Develop/ToolsKits/ARM/arm-gnu-toolchain_v13_3/bin/../lib/gcc/arm-none-eabi/13.3.1/thumb/v7e-m+fp/hard\libc.a(libc_a-envlock.o)
 .ARM.attributes
                0x00000000       0x34 E:/Tools/Develop/ToolsKits/ARM/arm-gnu-toolchain_v13_3/bin/../lib/gcc/arm-none-eabi/13.3.1/thumb/v7e-m+fp/hard\libc.a(libc_a-envlock.o)
 .text          0x00000000        0x0 E:/Tools/Develop/ToolsKits/ARM/arm-gnu-toolchain_v13_3/bin/../lib/gcc/arm-none-eabi/13.3.1/thumb/v7e-m+fp/hard\libc.a(libc_a-wcsnrtombs.o)
 .data          0x00000000        0x0 E:/Tools/Develop/ToolsKits/ARM/arm-gnu-toolchain_v13_3/bin/../lib/gcc/arm-none-eabi/13.3.1/thumb/v7e-m+fp/hard\libc.a(libc_a-wcsnrtombs.o)
 .bss           0x00000000        0x0 E:/Tools/Develop/ToolsKits/ARM/arm-gnu-toolchain_v13_3/bin/../lib/gcc/arm-none-eabi/13.3.1/thumb/v7e-m+fp/hard\libc.a(libc_a-wcsnrtombs.o)
 .text.wcsnrtombs
                0x00000000       0x2c E:/Tools/Develop/ToolsKits/ARM/arm-gnu-toolchain_v13_3/bin/../lib/gcc/arm-none-eabi/13.3.1/thumb/v7e-m+fp/hard\libc.a(libc_a-wcsnrtombs.o)
 .text          0x00000000        0x0 E:/Tools/Develop/ToolsKits/ARM/arm-gnu-toolchain_v13_3/bin/../lib/gcc/arm-none-eabi/13.3.1/thumb/v7e-m+fp/hard\libc.a(libc_a-fiprintf.o)
 .data          0x00000000        0x0 E:/Tools/Develop/ToolsKits/ARM/arm-gnu-toolchain_v13_3/bin/../lib/gcc/arm-none-eabi/13.3.1/thumb/v7e-m+fp/hard\libc.a(libc_a-fiprintf.o)
 .bss           0x00000000        0x0 E:/Tools/Develop/ToolsKits/ARM/arm-gnu-toolchain_v13_3/bin/../lib/gcc/arm-none-eabi/13.3.1/thumb/v7e-m+fp/hard\libc.a(libc_a-fiprintf.o)
 .text._fiprintf_r
                0x00000000       0x1c E:/Tools/Develop/ToolsKits/ARM/arm-gnu-toolchain_v13_3/bin/../lib/gcc/arm-none-eabi/13.3.1/thumb/v7e-m+fp/hard\libc.a(libc_a-fiprintf.o)
 .text          0x00000000        0x0 E:/Tools/Develop/ToolsKits/ARM/arm-gnu-toolchain_v13_3/bin/../lib/gcc/arm-none-eabi/13.3.1/thumb/v7e-m+fp/hard\libc.a(libc_a-vfiprintf.o)
 .data          0x00000000        0x0 E:/Tools/Develop/ToolsKits/ARM/arm-gnu-toolchain_v13_3/bin/../lib/gcc/arm-none-eabi/13.3.1/thumb/v7e-m+fp/hard\libc.a(libc_a-vfiprintf.o)
 .bss           0x00000000        0x0 E:/Tools/Develop/ToolsKits/ARM/arm-gnu-toolchain_v13_3/bin/../lib/gcc/arm-none-eabi/13.3.1/thumb/v7e-m+fp/hard\libc.a(libc_a-vfiprintf.o)
 .text.vfiprintf
                0x00000000       0x1c E:/Tools/Develop/ToolsKits/ARM/arm-gnu-toolchain_v13_3/bin/../lib/gcc/arm-none-eabi/13.3.1/thumb/v7e-m+fp/hard\libc.a(libc_a-vfiprintf.o)
 .data          0x00000000        0x0 E:/Tools/Develop/ToolsKits/ARM/arm-gnu-toolchain_v13_3/bin/../lib/gcc/arm-none-eabi/13.3.1/thumb/v7e-m+fp/hard\libgcc.a(_arm_muldivdf3.o)
 .bss           0x00000000        0x0 E:/Tools/Develop/ToolsKits/ARM/arm-gnu-toolchain_v13_3/bin/../lib/gcc/arm-none-eabi/13.3.1/thumb/v7e-m+fp/hard\libgcc.a(_arm_muldivdf3.o)
 .data          0x00000000        0x0 E:/Tools/Develop/ToolsKits/ARM/arm-gnu-toolchain_v13_3/bin/../lib/gcc/arm-none-eabi/13.3.1/thumb/v7e-m+fp/hard\libgcc.a(_arm_cmpdf2.o)
 .bss           0x00000000        0x0 E:/Tools/Develop/ToolsKits/ARM/arm-gnu-toolchain_v13_3/bin/../lib/gcc/arm-none-eabi/13.3.1/thumb/v7e-m+fp/hard\libgcc.a(_arm_cmpdf2.o)
 .data          0x00000000        0x0 E:/Tools/Develop/ToolsKits/ARM/arm-gnu-toolchain_v13_3/bin/../lib/gcc/arm-none-eabi/13.3.1/thumb/v7e-m+fp/hard\libgcc.a(_arm_unorddf2.o)
 .bss           0x00000000        0x0 E:/Tools/Develop/ToolsKits/ARM/arm-gnu-toolchain_v13_3/bin/../lib/gcc/arm-none-eabi/13.3.1/thumb/v7e-m+fp/hard\libgcc.a(_arm_unorddf2.o)
 .data          0x00000000        0x0 E:/Tools/Develop/ToolsKits/ARM/arm-gnu-toolchain_v13_3/bin/../lib/gcc/arm-none-eabi/13.3.1/thumb/v7e-m+fp/hard\libgcc.a(_arm_fixdfsi.o)
 .bss           0x00000000        0x0 E:/Tools/Develop/ToolsKits/ARM/arm-gnu-toolchain_v13_3/bin/../lib/gcc/arm-none-eabi/13.3.1/thumb/v7e-m+fp/hard\libgcc.a(_arm_fixdfsi.o)
 .text          0x00000000        0x0 E:/Tools/Develop/ToolsKits/ARM/arm-gnu-toolchain_v13_3/bin/../lib/gcc/arm-none-eabi/13.3.1/thumb/v7e-m+fp/hard/crtend.o
 .data          0x00000000        0x0 E:/Tools/Develop/ToolsKits/ARM/arm-gnu-toolchain_v13_3/bin/../lib/gcc/arm-none-eabi/13.3.1/thumb/v7e-m+fp/hard/crtend.o
 .bss           0x00000000        0x0 E:/Tools/Develop/ToolsKits/ARM/arm-gnu-toolchain_v13_3/bin/../lib/gcc/arm-none-eabi/13.3.1/thumb/v7e-m+fp/hard/crtend.o
 .rodata.all_implied_fbits
                0x00000000       0x24 E:/Tools/Develop/ToolsKits/ARM/arm-gnu-toolchain_v13_3/bin/../lib/gcc/arm-none-eabi/13.3.1/thumb/v7e-m+fp/hard/crtend.o
 .eh_frame      0x00000000        0x4 E:/Tools/Develop/ToolsKits/ARM/arm-gnu-toolchain_v13_3/bin/../lib/gcc/arm-none-eabi/13.3.1/thumb/v7e-m+fp/hard/crtend.o
 .text          0x00000000        0x0 E:/Tools/Develop/ToolsKits/ARM/arm-gnu-toolchain_v13_3/bin/../lib/gcc/arm-none-eabi/13.3.1/thumb/v7e-m+fp/hard/crtn.o
 .data          0x00000000        0x0 E:/Tools/Develop/ToolsKits/ARM/arm-gnu-toolchain_v13_3/bin/../lib/gcc/arm-none-eabi/13.3.1/thumb/v7e-m+fp/hard/crtn.o
 .bss           0x00000000        0x0 E:/Tools/Develop/ToolsKits/ARM/arm-gnu-toolchain_v13_3/bin/../lib/gcc/arm-none-eabi/13.3.1/thumb/v7e-m+fp/hard/crtn.o

Memory Configuration

Name             Origin             Length             Attributes
CCMRAM           0x10000000         0x00010000         xrw
RAM              0x20000000         0x00020000         xrw
FLASH            0x08000000         0x00080000         xr
*default*        0x00000000         0xffffffff

Linker script and memory map

LOAD E:/Tools/Develop/ToolsKits/ARM/arm-gnu-toolchain_v13_3/bin/../lib/gcc/arm-none-eabi/13.3.1/thumb/v7e-m+fp/hard/crti.o
LOAD E:/Tools/Develop/ToolsKits/ARM/arm-gnu-toolchain_v13_3/bin/../lib/gcc/arm-none-eabi/13.3.1/thumb/v7e-m+fp/hard/crtbegin.o
LOAD E:/Tools/Develop/ToolsKits/ARM/arm-gnu-toolchain_v13_3/bin/../lib/gcc/arm-none-eabi/13.3.1/thumb/v7e-m+fp/hard/crt0.o
LOAD CMakeFiles/Furina.elf.dir/Application/Base/ISR.cpp.obj
LOAD CMakeFiles/Furina.elf.dir/Core/startup_stm32f407vetx.s.obj
LOAD CMakeFiles/Furina.elf.dir/Core/stm32f4xx_it.c.obj
LOAD CMakeFiles/Furina.elf.dir/Core/syscalls.c.obj
LOAD CMakeFiles/Furina.elf.dir/Core/sysmem.c.obj
LOAD CMakeFiles/Furina.elf.dir/Core/system_stm32f4xx.c.obj
LOAD build/lib/liblibapp.a
LOAD build/lib/liblibbsp.a
LOAD build/lib/liblibdrivers.a
LOAD build/lib/liblibmodule.a
LOAD build/lib/liblibdsp.a
LOAD build/lib/liblibdata.a
LOAD build/lib/liblibai.a
LOAD E:/Tools/Develop/ToolsKits/ARM/arm-gnu-toolchain_v13_3/bin/../lib/gcc/arm-none-eabi/13.3.1/thumb/v7e-m+fp/hard\libstdc++.a
LOAD E:/Tools/Develop/ToolsKits/ARM/arm-gnu-toolchain_v13_3/bin/../lib/gcc/arm-none-eabi/13.3.1/thumb/v7e-m+fp/hard\libm.a
START GROUP
LOAD E:/Tools/Develop/ToolsKits/ARM/arm-gnu-toolchain_v13_3/bin/../lib/gcc/arm-none-eabi/13.3.1/thumb/v7e-m+fp/hard\libgcc.a
LOAD E:/Tools/Develop/ToolsKits/ARM/arm-gnu-toolchain_v13_3/bin/../lib/gcc/arm-none-eabi/13.3.1/thumb/v7e-m+fp/hard\libc.a
END GROUP
LOAD E:/Tools/Develop/ToolsKits/ARM/arm-gnu-toolchain_v13_3/bin/../lib/gcc/arm-none-eabi/13.3.1/thumb/v7e-m+fp/hard/crtend.o
LOAD E:/Tools/Develop/ToolsKits/ARM/arm-gnu-toolchain_v13_3/bin/../lib/gcc/arm-none-eabi/13.3.1/thumb/v7e-m+fp/hard/crtn.o
                0x20020000                        _estack = (ORIGIN (RAM) + LENGTH (RAM))
                0x00000400                        _Min_Heap_Size = 0x400
                0x00001000                        _Min_Stack_Size = 0x1000

.isr_vector     0x08000000      0x188
                0x08000000                        . = ALIGN (0x4)
 *(.isr_vector)
 .isr_vector    0x08000000      0x188 CMakeFiles/Furina.elf.dir/Core/startup_stm32f407vetx.s.obj
                0x08000000                g_pfnVectors
                0x08000188                        . = ALIGN (0x4)

.text           0x080001c0     0xa8bc
                0x080001c0                        . = ALIGN (0x4)
 *(.text)
 .text          0x080001c0      0x378 E:/Tools/Develop/ToolsKits/ARM/arm-gnu-toolchain_v13_3/bin/../lib/gcc/arm-none-eabi/13.3.1/thumb/v7e-m+fp/hard\libgcc.a(_arm_addsubdf3.o)
                0x080001c0                __aeabi_drsub
                0x080001c8                __aeabi_dsub
                0x080001c8                __subdf3
                0x080001cc                __aeabi_dadd
                0x080001cc                __adddf3
                0x08000444                __floatunsidf
                0x08000444                __aeabi_ui2d
                0x08000464                __floatsidf
                0x08000464                __aeabi_i2d
                0x08000488                __aeabi_f2d
                0x08000488                __extendsfdf2
                0x080004cc                __floatundidf
                0x080004cc                __aeabi_ul2d
                0x080004dc                __floatdidf
                0x080004dc                __aeabi_l2d
 .text          0x08000538       0x30 E:/Tools/Develop/ToolsKits/ARM/arm-gnu-toolchain_v13_3/bin/../lib/gcc/arm-none-eabi/13.3.1/thumb/v7e-m+fp/hard\libgcc.a(_aeabi_uldivmod.o)
                0x08000538                __aeabi_uldivmod
 .text          0x08000568      0x1ac E:/Tools/Develop/ToolsKits/ARM/arm-gnu-toolchain_v13_3/bin/../lib/gcc/arm-none-eabi/13.3.1/thumb/v7e-m+fp/hard\libgcc.a(libunwind.o)
                0x08000568                __restore_core_regs
                0x08000568                restore_core_regs
                0x08000580                __gnu_Unwind_Restore_VFP
                0x08000588                __gnu_Unwind_Save_VFP
                0x08000590                __gnu_Unwind_Restore_VFP_D
                0x08000598                __gnu_Unwind_Save_VFP_D
                0x080005a0                __gnu_Unwind_Restore_VFP_D_16_to_31
                0x080005a8                __gnu_Unwind_Save_VFP_D_16_to_31
                0x080005b0                __gnu_Unwind_Restore_WMMXD
                0x080005f4                __gnu_Unwind_Save_WMMXD
                0x08000638                __gnu_Unwind_Restore_WMMXC
                0x0800064c                __gnu_Unwind_Save_WMMXC
                0x08000660                ___Unwind_RaiseException
                0x08000660                _Unwind_RaiseException
                0x08000684                _Unwind_Resume
                0x08000684                ___Unwind_Resume
                0x080006a8                _Unwind_Resume_or_Rethrow
                0x080006a8                ___Unwind_Resume_or_Rethrow
                0x080006cc                _Unwind_ForcedUnwind
                0x080006cc                ___Unwind_ForcedUnwind
                0x080006f0                ___Unwind_Backtrace
                0x080006f0                _Unwind_Backtrace
 .text          0x08000714        0x4 E:/Tools/Develop/ToolsKits/ARM/arm-gnu-toolchain_v13_3/bin/../lib/gcc/arm-none-eabi/13.3.1/thumb/v7e-m+fp/hard\libgcc.a(_dvmd_tls.o)
                0x08000714                __aeabi_idiv0
                0x08000714                __aeabi_ldiv0
 .text          0x08000718      0x134 E:/Tools/Develop/ToolsKits/ARM/arm-gnu-toolchain_v13_3/bin/../lib/gcc/arm-none-eabi/13.3.1/thumb/v7e-m+fp/hard\libc.a(libc_a-memcpy.o)
                0x08000718                memcpy
 *fill*         0x0800084c        0x4 
 .text          0x08000850       0xa0 E:/Tools/Develop/ToolsKits/ARM/arm-gnu-toolchain_v13_3/bin/../lib/gcc/arm-none-eabi/13.3.1/thumb/v7e-m+fp/hard\libc.a(libc_a-memchr.o)
                0x08000850                memchr
 *fill*         0x080008f0       0x10 
 .text          0x08000900       0xd8 E:/Tools/Develop/ToolsKits/ARM/arm-gnu-toolchain_v13_3/bin/../lib/gcc/arm-none-eabi/13.3.1/thumb/v7e-m+fp/hard\libc.a(libc_a-strlen.o)
                0x08000900                strlen
 .text          0x080009d8      0x424 E:/Tools/Develop/ToolsKits/ARM/arm-gnu-toolchain_v13_3/bin/../lib/gcc/arm-none-eabi/13.3.1/thumb/v7e-m+fp/hard\libgcc.a(_arm_muldivdf3.o)
                0x080009d8                __aeabi_dmul
                0x080009d8                __muldf3
                0x08000c2c                __divdf3
                0x08000c2c                __aeabi_ddiv
 .text          0x08000dfc      0x110 E:/Tools/Develop/ToolsKits/ARM/arm-gnu-toolchain_v13_3/bin/../lib/gcc/arm-none-eabi/13.3.1/thumb/v7e-m+fp/hard\libgcc.a(_arm_cmpdf2.o)
                0x08000dfc                __gtdf2
                0x08000dfc                __gedf2
                0x08000e04                __ltdf2
                0x08000e04                __ledf2
                0x08000e0c                __nedf2
                0x08000e0c                __eqdf2
                0x08000e0c                __cmpdf2
                0x08000e88                __aeabi_cdrcmple
                0x08000e98                __aeabi_cdcmpeq
                0x08000e98                __aeabi_cdcmple
                0x08000ea8                __aeabi_dcmpeq
                0x08000ebc                __aeabi_dcmplt
                0x08000ed0                __aeabi_dcmple
                0x08000ee4                __aeabi_dcmpge
                0x08000ef8                __aeabi_dcmpgt
 .text          0x08000f0c       0x2c E:/Tools/Develop/ToolsKits/ARM/arm-gnu-toolchain_v13_3/bin/../lib/gcc/arm-none-eabi/13.3.1/thumb/v7e-m+fp/hard\libgcc.a(_arm_unorddf2.o)
                0x08000f0c                __unorddf2
                0x08000f0c                __aeabi_dcmpun
 .text          0x08000f38       0x50 E:/Tools/Develop/ToolsKits/ARM/arm-gnu-toolchain_v13_3/bin/../lib/gcc/arm-none-eabi/13.3.1/thumb/v7e-m+fp/hard\libgcc.a(_arm_fixdfsi.o)
                0x08000f38                __aeabi_d2iz
                0x08000f38                __fixdfsi
 *(.text*)
 .text.deregister_tm_clones
                0x08000f88       0x1c E:/Tools/Develop/ToolsKits/ARM/arm-gnu-toolchain_v13_3/bin/../lib/gcc/arm-none-eabi/13.3.1/thumb/v7e-m+fp/hard/crtbegin.o
 .text.register_tm_clones
                0x08000fa4       0x24 E:/Tools/Develop/ToolsKits/ARM/arm-gnu-toolchain_v13_3/bin/../lib/gcc/arm-none-eabi/13.3.1/thumb/v7e-m+fp/hard/crtbegin.o
 .text.__do_global_dtors_aux
                0x08000fc8       0x28 E:/Tools/Develop/ToolsKits/ARM/arm-gnu-toolchain_v13_3/bin/../lib/gcc/arm-none-eabi/13.3.1/thumb/v7e-m+fp/hard/crtbegin.o
 .text.frame_dummy
                0x08000ff0       0x24 E:/Tools/Develop/ToolsKits/ARM/arm-gnu-toolchain_v13_3/bin/../lib/gcc/arm-none-eabi/13.3.1/thumb/v7e-m+fp/hard/crtbegin.o
 .text.HAL_ADC_ConvCpltCallback
                0x08001014       0x18 CMakeFiles/Furina.elf.dir/Application/Base/ISR.cpp.obj
                0x08001014                HAL_ADC_ConvCpltCallback
 .text.EXTI0_IRQHandler
                0x0800102c       0x2c CMakeFiles/Furina.elf.dir/Application/Base/ISR.cpp.obj
                0x0800102c                EXTI0_IRQHandler
 .text.DMA2_Stream6_IRQHandler
                0x08001058       0x44 CMakeFiles/Furina.elf.dir/Application/Base/ISR.cpp.obj
                0x08001058                DMA2_Stream6_IRQHandler
 .text.Reset_Handler
                0x0800109c       0x50 CMakeFiles/Furina.elf.dir/Core/startup_stm32f407vetx.s.obj
                0x0800109c                Reset_Handler
 .text.NMI_Handler
                0x080010ec        0x4 CMakeFiles/Furina.elf.dir/Core/stm32f4xx_it.c.obj
                0x080010ec                NMI_Handler
 .text.HardFault_Handler
                0x080010f0        0x4 CMakeFiles/Furina.elf.dir/Core/stm32f4xx_it.c.obj
                0x080010f0                HardFault_Handler
 .text.MemManage_Handler
                0x080010f4        0x4 CMakeFiles/Furina.elf.dir/Core/stm32f4xx_it.c.obj
                0x080010f4                MemManage_Handler
 .text.BusFault_Handler
                0x080010f8        0x4 CMakeFiles/Furina.elf.dir/Core/stm32f4xx_it.c.obj
                0x080010f8                BusFault_Handler
 .text.UsageFault_Handler
                0x080010fc        0x4 CMakeFiles/Furina.elf.dir/Core/stm32f4xx_it.c.obj
                0x080010fc                UsageFault_Handler
 .text.DebugMon_Handler
                0x08001100        0x4 CMakeFiles/Furina.elf.dir/Core/stm32f4xx_it.c.obj
                0x08001100                DebugMon_Handler
 .text.RTC_Alarm_IRQHandler
                0x08001104        0x4 CMakeFiles/Furina.elf.dir/Core/stm32f4xx_it.c.obj
                0x08001104                RTC_Alarm_IRQHandler
 .text.HASH_RNG_IRQHandler
                0x08001108        0x4 CMakeFiles/Furina.elf.dir/Core/stm32f4xx_it.c.obj
                0x08001108                HASH_RNG_IRQHandler
 .text.EXTI2_IRQHandler
                0x0800110c        0x4 CMakeFiles/Furina.elf.dir/Core/stm32f4xx_it.c.obj
                0x0800110c                EXTI2_IRQHandler
 .text.TIM8_CC_IRQHandler
                0x08001110        0x4 CMakeFiles/Furina.elf.dir/Core/stm32f4xx_it.c.obj
                0x08001110                TIM8_CC_IRQHandler
 .text.TIM1_CC_IRQHandler
                0x08001114        0x4 CMakeFiles/Furina.elf.dir/Core/stm32f4xx_it.c.obj
                0x08001114                TIM1_CC_IRQHandler
 .text.DMA2_Stream5_IRQHandler
                0x08001118        0x4 CMakeFiles/Furina.elf.dir/Core/stm32f4xx_it.c.obj
                0x08001118                DMA2_Stream5_IRQHandler
 .text.DMA1_Stream5_IRQHandler
                0x0800111c        0x4 CMakeFiles/Furina.elf.dir/Core/stm32f4xx_it.c.obj
                0x0800111c                DMA1_Stream5_IRQHandler
 .text.SysTick_Handler
                0x08001120        0x4 CMakeFiles/Furina.elf.dir/Core/stm32f4xx_it.c.obj
                0x08001120                SysTick_Handler
 .text.PVD_IRQHandler
                0x08001124        0x4 CMakeFiles/Furina.elf.dir/Core/stm32f4xx_it.c.obj
                0x08001124                PVD_IRQHandler
 .text.SDIO_IRQHandler
                0x08001128        0x4 CMakeFiles/Furina.elf.dir/Core/stm32f4xx_it.c.obj
                0x08001128                SDIO_IRQHandler
 .text.TAMP_STAMP_IRQHandler
                0x0800112c        0x4 CMakeFiles/Furina.elf.dir/Core/stm32f4xx_it.c.obj
                0x0800112c                TAMP_STAMP_IRQHandler
 .text.PendSV_Handler
                0x08001130        0x4 CMakeFiles/Furina.elf.dir/Core/stm32f4xx_it.c.obj
                0x08001130                PendSV_Handler
 .text.CAN2_RX1_IRQHandler
                0x08001134        0x4 CMakeFiles/Furina.elf.dir/Core/stm32f4xx_it.c.obj
                0x08001134                CAN2_RX1_IRQHandler
 .text.EXTI3_IRQHandler
                0x08001138        0x4 CMakeFiles/Furina.elf.dir/Core/stm32f4xx_it.c.obj
                0x08001138                EXTI3_IRQHandler
 .text.TIM8_TRG_COM_TIM14_IRQHandler
                0x0800113c        0x4 CMakeFiles/Furina.elf.dir/Core/stm32f4xx_it.c.obj
                0x0800113c                TIM8_TRG_COM_TIM14_IRQHandler
 .text.TIM1_UP_TIM10_IRQHandler
                0x08001140        0x4 CMakeFiles/Furina.elf.dir/Core/stm32f4xx_it.c.obj
                0x08001140                TIM1_UP_TIM10_IRQHandler
 .text.I2C3_ER_IRQHandler
                0x08001144        0x4 CMakeFiles/Furina.elf.dir/Core/stm32f4xx_it.c.obj
                0x08001144                I2C3_ER_IRQHandler
 .text.I2C2_EV_IRQHandler
                0x08001148        0x4 CMakeFiles/Furina.elf.dir/Core/stm32f4xx_it.c.obj
                0x08001148                I2C2_EV_IRQHandler
 .text.DMA1_Stream2_IRQHandler
                0x0800114c        0x4 CMakeFiles/Furina.elf.dir/Core/stm32f4xx_it.c.obj
                0x0800114c                DMA1_Stream2_IRQHandler
 .text.CAN1_RX0_IRQHandler
                0x08001150        0x4 CMakeFiles/Furina.elf.dir/Core/stm32f4xx_it.c.obj
                0x08001150                CAN1_RX0_IRQHandler
 .text.FPU_IRQHandler
                0x08001154        0x4 CMakeFiles/Furina.elf.dir/Core/stm32f4xx_it.c.obj
                0x08001154                FPU_IRQHandler
 .text.OTG_HS_WKUP_IRQHandler
                0x08001158        0x4 CMakeFiles/Furina.elf.dir/Core/stm32f4xx_it.c.obj
                0x08001158                OTG_HS_WKUP_IRQHandler
 .text.CAN2_SCE_IRQHandler
                0x0800115c        0x4 CMakeFiles/Furina.elf.dir/Core/stm32f4xx_it.c.obj
                0x0800115c                CAN2_SCE_IRQHandler
 .text.DMA2_Stream2_IRQHandler
                0x08001160        0x4 CMakeFiles/Furina.elf.dir/Core/stm32f4xx_it.c.obj
                0x08001160                DMA2_Stream2_IRQHandler
 .text.SPI1_IRQHandler
                0x08001164        0x4 CMakeFiles/Furina.elf.dir/Core/stm32f4xx_it.c.obj
                0x08001164                SPI1_IRQHandler
 .text.TIM1_BRK_TIM9_IRQHandler
                0x08001168        0x4 CMakeFiles/Furina.elf.dir/Core/stm32f4xx_it.c.obj
                0x08001168                TIM1_BRK_TIM9_IRQHandler
 .text.DCMI_IRQHandler
                0x0800116c        0x4 CMakeFiles/Furina.elf.dir/Core/stm32f4xx_it.c.obj
                0x0800116c                DCMI_IRQHandler
 .text.CAN2_RX0_IRQHandler
                0x08001170        0x4 CMakeFiles/Furina.elf.dir/Core/stm32f4xx_it.c.obj
                0x08001170                CAN2_RX0_IRQHandler
 .text.DMA2_Stream3_IRQHandler
                0x08001174        0x4 CMakeFiles/Furina.elf.dir/Core/stm32f4xx_it.c.obj
                0x08001174                DMA2_Stream3_IRQHandler
 .text.USART6_IRQHandler
                0x08001178        0x4 CMakeFiles/Furina.elf.dir/Core/stm32f4xx_it.c.obj
                0x08001178                USART6_IRQHandler
 .text.USART3_IRQHandler
                0x0800117c        0x4 CMakeFiles/Furina.elf.dir/Core/stm32f4xx_it.c.obj
                0x0800117c                USART3_IRQHandler
 .text.CAN1_RX1_IRQHandler
                0x08001180        0x4 CMakeFiles/Furina.elf.dir/Core/stm32f4xx_it.c.obj
                0x08001180                CAN1_RX1_IRQHandler
 .text.UART5_IRQHandler
                0x08001184        0x4 CMakeFiles/Furina.elf.dir/Core/stm32f4xx_it.c.obj
                0x08001184                UART5_IRQHandler
 .text.DMA2_Stream0_IRQHandler
                0x08001188        0x4 CMakeFiles/Furina.elf.dir/Core/stm32f4xx_it.c.obj
                0x08001188                DMA2_Stream0_IRQHandler
 .text.TIM4_IRQHandler
                0x0800118c        0x4 CMakeFiles/Furina.elf.dir/Core/stm32f4xx_it.c.obj
                0x0800118c                TIM4_IRQHandler
 .text.I2C1_EV_IRQHandler
                0x08001190        0x4 CMakeFiles/Furina.elf.dir/Core/stm32f4xx_it.c.obj
                0x08001190                I2C1_EV_IRQHandler
 .text.DMA1_Stream6_IRQHandler
                0x08001194        0x4 CMakeFiles/Furina.elf.dir/Core/stm32f4xx_it.c.obj
                0x08001194                DMA1_Stream6_IRQHandler
 .text.DMA1_Stream1_IRQHandler
                0x08001198        0x4 CMakeFiles/Furina.elf.dir/Core/stm32f4xx_it.c.obj
                0x08001198                DMA1_Stream1_IRQHandler
 .text.UART4_IRQHandler
                0x0800119c        0x4 CMakeFiles/Furina.elf.dir/Core/stm32f4xx_it.c.obj
                0x0800119c                UART4_IRQHandler
 .text.TIM3_IRQHandler
                0x080011a0        0x4 CMakeFiles/Furina.elf.dir/Core/stm32f4xx_it.c.obj
                0x080011a0                TIM3_IRQHandler
 .text.RCC_IRQHandler
                0x080011a4        0x4 CMakeFiles/Furina.elf.dir/Core/stm32f4xx_it.c.obj
                0x080011a4                RCC_IRQHandler
 .text.TIM8_BRK_TIM12_IRQHandler
                0x080011a8        0x4 CMakeFiles/Furina.elf.dir/Core/stm32f4xx_it.c.obj
                0x080011a8                TIM8_BRK_TIM12_IRQHandler
 .text.EXTI15_10_IRQHandler
                0x080011ac        0x4 CMakeFiles/Furina.elf.dir/Core/stm32f4xx_it.c.obj
                0x080011ac                EXTI15_10_IRQHandler
 .text.DMA1_Stream7_IRQHandler
                0x080011b0        0x4 CMakeFiles/Furina.elf.dir/Core/stm32f4xx_it.c.obj
                0x080011b0                DMA1_Stream7_IRQHandler
 .text.CAN2_TX_IRQHandler
                0x080011b4        0x4 CMakeFiles/Furina.elf.dir/Core/stm32f4xx_it.c.obj
                0x080011b4                CAN2_TX_IRQHandler
 .text.TIM5_IRQHandler
                0x080011b8        0x4 CMakeFiles/Furina.elf.dir/Core/stm32f4xx_it.c.obj
                0x080011b8                TIM5_IRQHandler
 .text.DMA2_Stream7_IRQHandler
                0x080011bc        0x4 CMakeFiles/Furina.elf.dir/Core/stm32f4xx_it.c.obj
                0x080011bc                DMA2_Stream7_IRQHandler
 .text.I2C3_EV_IRQHandler
                0x080011c0        0x4 CMakeFiles/Furina.elf.dir/Core/stm32f4xx_it.c.obj
                0x080011c0                I2C3_EV_IRQHandler
 .text.EXTI9_5_IRQHandler
                0x080011c4        0x4 CMakeFiles/Furina.elf.dir/Core/stm32f4xx_it.c.obj
                0x080011c4                EXTI9_5_IRQHandler
 .text.RTC_WKUP_IRQHandler
                0x080011c8        0x4 CMakeFiles/Furina.elf.dir/Core/stm32f4xx_it.c.obj
                0x080011c8                RTC_WKUP_IRQHandler
 .text.ETH_WKUP_IRQHandler
                0x080011cc        0x4 CMakeFiles/Furina.elf.dir/Core/stm32f4xx_it.c.obj
                0x080011cc                ETH_WKUP_IRQHandler
 .text.SPI2_IRQHandler
                0x080011d0        0x4 CMakeFiles/Furina.elf.dir/Core/stm32f4xx_it.c.obj
                0x080011d0                SPI2_IRQHandler
 .text.OTG_HS_EP1_IN_IRQHandler
                0x080011d4        0x4 CMakeFiles/Furina.elf.dir/Core/stm32f4xx_it.c.obj
                0x080011d4                OTG_HS_EP1_IN_IRQHandler
 .text.DMA1_Stream0_IRQHandler
                0x080011d8        0x4 CMakeFiles/Furina.elf.dir/Core/stm32f4xx_it.c.obj
                0x080011d8                DMA1_Stream0_IRQHandler
 .text.CAN1_TX_IRQHandler
                0x080011dc        0x4 CMakeFiles/Furina.elf.dir/Core/stm32f4xx_it.c.obj
                0x080011dc                CAN1_TX_IRQHandler
 .text.SVC_Handler
                0x080011e0        0x4 CMakeFiles/Furina.elf.dir/Core/stm32f4xx_it.c.obj
                0x080011e0                SVC_Handler
 .text.EXTI4_IRQHandler
                0x080011e4        0x4 CMakeFiles/Furina.elf.dir/Core/stm32f4xx_it.c.obj
                0x080011e4                EXTI4_IRQHandler
 .text.FSMC_IRQHandler
                0x080011e8        0x4 CMakeFiles/Furina.elf.dir/Core/stm32f4xx_it.c.obj
                0x080011e8                FSMC_IRQHandler
 .text.ETH_IRQHandler
                0x080011ec        0x4 CMakeFiles/Furina.elf.dir/Core/stm32f4xx_it.c.obj
                0x080011ec                ETH_IRQHandler
 .text.OTG_HS_EP1_OUT_IRQHandler
                0x080011f0        0x4 CMakeFiles/Furina.elf.dir/Core/stm32f4xx_it.c.obj
                0x080011f0                OTG_HS_EP1_OUT_IRQHandler
 .text.WWDG_IRQHandler
                0x080011f4        0x4 CMakeFiles/Furina.elf.dir/Core/stm32f4xx_it.c.obj
                0x080011f4                WWDG_IRQHandler
 .text.TIM2_IRQHandler
                0x080011f8        0x4 CMakeFiles/Furina.elf.dir/Core/stm32f4xx_it.c.obj
                0x080011f8                TIM2_IRQHandler
 .text.OTG_FS_WKUP_IRQHandler
                0x080011fc        0x4 CMakeFiles/Furina.elf.dir/Core/stm32f4xx_it.c.obj
                0x080011fc                OTG_FS_WKUP_IRQHandler
 .text.TIM1_TRG_COM_TIM11_IRQHandler
                0x08001200        0x4 CMakeFiles/Furina.elf.dir/Core/stm32f4xx_it.c.obj
                0x08001200                TIM1_TRG_COM_TIM11_IRQHandler
 .text.OTG_HS_IRQHandler
                0x08001204        0x4 CMakeFiles/Furina.elf.dir/Core/stm32f4xx_it.c.obj
                0x08001204                OTG_HS_IRQHandler
 .text.EXTI1_IRQHandler
                0x08001208        0x4 CMakeFiles/Furina.elf.dir/Core/stm32f4xx_it.c.obj
                0x08001208                EXTI1_IRQHandler
 .text.USART2_IRQHandler
                0x0800120c        0x4 CMakeFiles/Furina.elf.dir/Core/stm32f4xx_it.c.obj
                0x0800120c                USART2_IRQHandler
 .text.I2C2_ER_IRQHandler
                0x08001210        0x4 CMakeFiles/Furina.elf.dir/Core/stm32f4xx_it.c.obj
                0x08001210                I2C2_ER_IRQHandler
 .text.DMA2_Stream1_IRQHandler
                0x08001214        0x4 CMakeFiles/Furina.elf.dir/Core/stm32f4xx_it.c.obj
                0x08001214                DMA2_Stream1_IRQHandler
 .text.CAN1_SCE_IRQHandler
                0x08001218        0x4 CMakeFiles/Furina.elf.dir/Core/stm32f4xx_it.c.obj
                0x08001218                CAN1_SCE_IRQHandler
 .text.FLASH_IRQHandler
                0x0800121c        0x4 CMakeFiles/Furina.elf.dir/Core/stm32f4xx_it.c.obj
                0x0800121c                FLASH_IRQHandler
 .text.DMA2_Stream4_IRQHandler
                0x08001220        0x4 CMakeFiles/Furina.elf.dir/Core/stm32f4xx_it.c.obj
                0x08001220                DMA2_Stream4_IRQHandler
 .text.OTG_FS_IRQHandler
                0x08001224        0x4 CMakeFiles/Furina.elf.dir/Core/stm32f4xx_it.c.obj
                0x08001224                OTG_FS_IRQHandler
 .text.SPI3_IRQHandler
                0x08001228        0x4 CMakeFiles/Furina.elf.dir/Core/stm32f4xx_it.c.obj
                0x08001228                SPI3_IRQHandler
 .text.DMA1_Stream4_IRQHandler
                0x0800122c        0x4 CMakeFiles/Furina.elf.dir/Core/stm32f4xx_it.c.obj
                0x0800122c                DMA1_Stream4_IRQHandler
 .text.I2C1_ER_IRQHandler
                0x08001230        0x4 CMakeFiles/Furina.elf.dir/Core/stm32f4xx_it.c.obj
                0x08001230                I2C1_ER_IRQHandler
 .text.DMA1_Stream3_IRQHandler
                0x08001234        0x4 CMakeFiles/Furina.elf.dir/Core/stm32f4xx_it.c.obj
                0x08001234                DMA1_Stream3_IRQHandler
 .text._getpid  0x08001238        0x4 CMakeFiles/Furina.elf.dir/Core/syscalls.c.obj
                0x08001238                _getpid
 .text._kill    0x0800123c       0x10 CMakeFiles/Furina.elf.dir/Core/syscalls.c.obj
                0x0800123c                _kill
 .text._exit    0x0800124c        0xc CMakeFiles/Furina.elf.dir/Core/syscalls.c.obj
                0x0800124c                _exit
 .text._read    0x08001258       0x1c CMakeFiles/Furina.elf.dir/Core/syscalls.c.obj
                0x08001258                _read
 .text._close   0x08001274        0x8 CMakeFiles/Furina.elf.dir/Core/syscalls.c.obj
                0x08001274                _close
 .text._fstat   0x0800127c        0xc CMakeFiles/Furina.elf.dir/Core/syscalls.c.obj
                0x0800127c                _fstat
 .text._isatty  0x08001288        0x4 CMakeFiles/Furina.elf.dir/Core/syscalls.c.obj
                0x08001288                _isatty
 .text._lseek   0x0800128c        0x4 CMakeFiles/Furina.elf.dir/Core/syscalls.c.obj
                0x0800128c                _lseek
 .text._sbrk    0x08001290       0x44 CMakeFiles/Furina.elf.dir/Core/sysmem.c.obj
                0x08001290                _sbrk
 .text.SystemInit
                0x080012d4       0x14 CMakeFiles/Furina.elf.dir/Core/system_stm32f4xx.c.obj
                0x080012d4                SystemInit
 .text._Z8BaseInitv
                0x080012e8       0xc0 build/lib/liblibapp.a(baseInit.cpp.obj)
                0x080012e8                BaseInit()
 .text.HAL_MspInit
                0x080013a8       0x80 build/lib/liblibapp.a(baseInit.cpp.obj)
                0x080013a8                HAL_MspInit
 .text.HAL_InitTick
                0x08001428       0xa8 build/lib/liblibapp.a(baseInit.cpp.obj)
                0x08001428                HAL_InitTick
 .text.TIM7_IRQHandler
                0x080014d0       0x14 build/lib/liblibapp.a(baseInit.cpp.obj)
                0x080014d0                TIM7_IRQHandler
 .text._Z18background_handlerv
                0x080014e4        0x4 build/lib/liblibapp.a(main.cpp.obj)
                0x080014e4                background_handler()
 .text.startup.main
                0x080014e8       0x14 build/lib/liblibapp.a(main.cpp.obj)
                0x080014e8                main
 .text._Z8app_initv
                0x080014fc       0x2c build/lib/liblibapp.a(app.cpp.obj)
                0x080014fc                app_init()
 .text._Z11key_handlerv
                0x08001528       0x4c build/lib/liblibapp.a(app.cpp.obj)
                0x08001528                key_handler()
 .text._Z8adc1_isrv
                0x08001574       0x48 build/lib/liblibapp.a(app.cpp.obj)
                0x08001574                adc1_isr()
 .text.HAL_UART_RxCpltCallback
                0x080015bc       0x34 build/lib/liblibapp.a(app.cpp.obj)
                0x080015bc                HAL_UART_RxCpltCallback
 .text.ConfigureTimerForRunTimeStats
                0x080015f0       0x70 build/lib/liblibbsp.a(CPU_RunTime.c.obj)
                0x080015f0                ConfigureTimerForRunTimeStats
 .text.TIM8_UP_TIM13_IRQHandler
                0x08001660       0x24 build/lib/liblibbsp.a(CPU_RunTime.c.obj)
                0x08001660                TIM8_UP_TIM13_IRQHandler
 .text.adc1_init
                0x08001684       0xbc build/lib/liblibbsp.a(adc.c.obj)
                0x08001684                adc1_init
 .text.ADC_IRQHandler
                0x08001740        0xc build/lib/liblibbsp.a(adc.c.obj)
                0x08001740                ADC_IRQHandler
 *fill*         0x0800174c        0x4 
 .text.fsmc_init
                0x08001750      0x10c build/lib/liblibbsp.a(fsmc.c.obj)
                0x08001750                fsmc_init
 .text.fsmc_dma_init
                0x0800185c       0x80 build/lib/liblibbsp.a(fsmc.c.obj)
                0x0800185c                fsmc_dma_init
 *fill*         0x080018dc        0x4 
 .text.key_exti_init
                0x080018e0       0x58 build/lib/liblibbsp.a(key_exit.c.obj)
                0x080018e0                key_exti_init
 .text.lcd_init
                0x08001938      0x11c build/lib/liblibbsp.a(lcd.c.obj)
                0x08001938                lcd_init
 .text.timer2_init
                0x08001a54       0x6c build/lib/liblibbsp.a(timer.c.obj)
                0x08001a54                timer2_init
 .text.timer6_isr
                0x08001ac0        0x4 build/lib/liblibbsp.a(timer.c.obj)
                0x08001ac0                timer6_isr
 .text.TIM6_DAC_IRQHandler
                0x08001ac4       0x18 build/lib/liblibbsp.a(timer.c.obj)
                0x08001ac4                TIM6_DAC_IRQHandler
 .text.usart1_init
                0x08001adc       0x90 build/lib/liblibbsp.a(usart.c.obj)
                0x08001adc                usart1_init
 .text.USART1_IRQHandler
                0x08001b6c        0xc build/lib/liblibbsp.a(usart.c.obj)
                0x08001b6c                USART1_IRQHandler
 .text._write   0x08001b78       0x18 build/lib/liblibbsp.a(usart.c.obj)
                0x08001b78                _write
 .text.HAL_Init
                0x08001b90       0x34 build/lib/liblibdrivers.a(stm32f4xx_hal.c.obj)
                0x08001b90                HAL_Init
 .text.HAL_IncTick
                0x08001bc4       0x18 build/lib/liblibdrivers.a(stm32f4xx_hal.c.obj)
                0x08001bc4                HAL_IncTick
 .text.HAL_GetTick
                0x08001bdc        0xc build/lib/liblibdrivers.a(stm32f4xx_hal.c.obj)
                0x08001bdc                HAL_GetTick
 .text.HAL_Delay
                0x08001be8       0x24 build/lib/liblibdrivers.a(stm32f4xx_hal.c.obj)
                0x08001be8                HAL_Delay
 .text.HAL_ADC_MspInit
                0x08001c0c        0x4 build/lib/liblibdrivers.a(stm32f4xx_hal_adc.c.obj)
                0x08001c0c                HAL_ADC_MspInit
 .text.HAL_ADC_Init
                0x08001c10      0x158 build/lib/liblibdrivers.a(stm32f4xx_hal_adc.c.obj)
                0x08001c10                HAL_ADC_Init
 .text.HAL_ADC_Start_IT
                0x08001d68      0x114 build/lib/liblibdrivers.a(stm32f4xx_hal_adc.c.obj)
                0x08001d68                HAL_ADC_Start_IT
 .text.HAL_ADC_Stop_IT
                0x08001e7c       0x48 build/lib/liblibdrivers.a(stm32f4xx_hal_adc.c.obj)
                0x08001e7c                HAL_ADC_Stop_IT
 .text.HAL_ADC_GetValue
                0x08001ec4        0x8 build/lib/liblibdrivers.a(stm32f4xx_hal_adc.c.obj)
                0x08001ec4                HAL_ADC_GetValue
 .text.HAL_ADC_LevelOutOfWindowCallback
                0x08001ecc        0x4 build/lib/liblibdrivers.a(stm32f4xx_hal_adc.c.obj)
                0x08001ecc                HAL_ADC_LevelOutOfWindowCallback
 .text.HAL_ADC_ErrorCallback
                0x08001ed0        0x4 build/lib/liblibdrivers.a(stm32f4xx_hal_adc.c.obj)
                0x08001ed0                HAL_ADC_ErrorCallback
 .text.HAL_ADC_IRQHandler
                0x08001ed4      0x120 build/lib/liblibdrivers.a(stm32f4xx_hal_adc.c.obj)
                0x08001ed4                HAL_ADC_IRQHandler
 .text.HAL_ADC_ConfigChannel
                0x08001ff4      0x150 build/lib/liblibdrivers.a(stm32f4xx_hal_adc.c.obj)
                0x08001ff4                HAL_ADC_ConfigChannel
 .text.HAL_ADCEx_InjectedConvCpltCallback
                0x08002144        0x4 build/lib/liblibdrivers.a(stm32f4xx_hal_adc_ex.c.obj)
                0x08002144                HAL_ADCEx_InjectedConvCpltCallback
 .text.HAL_NVIC_SetPriorityGrouping
                0x08002148       0x24 build/lib/liblibdrivers.a(stm32f4xx_hal_cortex.c.obj)
                0x08002148                HAL_NVIC_SetPriorityGrouping
 .text.HAL_NVIC_SetPriority
                0x0800216c       0x78 build/lib/liblibdrivers.a(stm32f4xx_hal_cortex.c.obj)
                0x0800216c                HAL_NVIC_SetPriority
 .text.HAL_NVIC_EnableIRQ
                0x080021e4       0x1c build/lib/liblibdrivers.a(stm32f4xx_hal_cortex.c.obj)
                0x080021e4                HAL_NVIC_EnableIRQ
 .text.HAL_DMA_Init
                0x08002200      0x128 build/lib/liblibdrivers.a(stm32f4xx_hal_dma.c.obj)
                0x08002200                HAL_DMA_Init
 .text.HAL_DMA_Abort
                0x08002328       0x94 build/lib/liblibdrivers.a(stm32f4xx_hal_dma.c.obj)
                0x08002328                HAL_DMA_Abort
 .text.HAL_DMA_Abort_IT
                0x080023bc       0x24 build/lib/liblibdrivers.a(stm32f4xx_hal_dma.c.obj)
                0x080023bc                HAL_DMA_Abort_IT
 .text.HAL_GPIO_Init
                0x080023e0      0x3d4 build/lib/liblibdrivers.a(stm32f4xx_hal_gpio.c.obj)
                0x080023e0                HAL_GPIO_Init
 .text.HAL_RCC_OscConfig
                0x080027b4      0x3c4 build/lib/liblibdrivers.a(stm32f4xx_hal_rcc.c.obj)
                0x080027b4                HAL_RCC_OscConfig
 .text.HAL_RCC_GetSysClockFreq
                0x08002b78       0x68 build/lib/liblibdrivers.a(stm32f4xx_hal_rcc.c.obj)
                0x08002b78                HAL_RCC_GetSysClockFreq
 .text.HAL_RCC_ClockConfig
                0x08002be0      0x13c build/lib/liblibdrivers.a(stm32f4xx_hal_rcc.c.obj)
                0x08002be0                HAL_RCC_ClockConfig
 .text.HAL_RCC_GetPCLK1Freq
                0x08002d1c       0x20 build/lib/liblibdrivers.a(stm32f4xx_hal_rcc.c.obj)
                0x08002d1c                HAL_RCC_GetPCLK1Freq
 .text.HAL_RCC_GetPCLK2Freq
                0x08002d3c       0x20 build/lib/liblibdrivers.a(stm32f4xx_hal_rcc.c.obj)
                0x08002d3c                HAL_RCC_GetPCLK2Freq
 .text.HAL_RCC_GetClockConfig
                0x08002d5c       0x44 build/lib/liblibdrivers.a(stm32f4xx_hal_rcc.c.obj)
                0x08002d5c                HAL_RCC_GetClockConfig
 .text.HAL_SRAM_MspInit
                0x08002da0        0x4 build/lib/liblibdrivers.a(stm32f4xx_hal_sram.c.obj)
                0x08002da0                HAL_SRAM_MspInit
 .text.HAL_SRAM_Init
                0x08002da4       0x5c build/lib/liblibdrivers.a(stm32f4xx_hal_sram.c.obj)
                0x08002da4                HAL_SRAM_Init
 .text.HAL_TIM_Base_MspInit
                0x08002e00        0x4 build/lib/liblibdrivers.a(stm32f4xx_hal_tim.c.obj)
                0x08002e00                HAL_TIM_Base_MspInit
 .text.HAL_TIM_Base_Init
                0x08002e04      0x130 build/lib/liblibdrivers.a(stm32f4xx_hal_tim.c.obj)
                0x08002e04                HAL_TIM_Base_Init
 .text.HAL_TIM_Base_Start
                0x08002f34       0x6c build/lib/liblibdrivers.a(stm32f4xx_hal_tim.c.obj)
                0x08002f34                HAL_TIM_Base_Start
 .text.HAL_TIM_Base_Stop
                0x08002fa0       0x28 build/lib/liblibdrivers.a(stm32f4xx_hal_tim.c.obj)
                0x08002fa0                HAL_TIM_Base_Stop
 .text.HAL_TIM_Base_Start_IT
                0x08002fc8       0x74 build/lib/liblibdrivers.a(stm32f4xx_hal_tim.c.obj)
                0x08002fc8                HAL_TIM_Base_Start_IT
 .text.HAL_TIM_ConfigClockSource
                0x0800303c      0x154 build/lib/liblibdrivers.a(stm32f4xx_hal_tim.c.obj)
                0x0800303c                HAL_TIM_ConfigClockSource
 .text.HAL_TIMEx_MasterConfigSynchronization
                0x08003190       0x80 build/lib/liblibdrivers.a(stm32f4xx_hal_tim_ex.c.obj)
                0x08003190                HAL_TIMEx_MasterConfigSynchronization
 .text.HAL_UART_MspInit
                0x08003210        0x4 build/lib/liblibdrivers.a(stm32f4xx_hal_uart.c.obj)
                0x08003210                HAL_UART_MspInit
 .text.HAL_UART_Init
                0x08003214      0x124 build/lib/liblibdrivers.a(stm32f4xx_hal_uart.c.obj)
                0x08003214                HAL_UART_Init
 .text.HAL_UART_Transmit
                0x08003338      0x108 build/lib/liblibdrivers.a(stm32f4xx_hal_uart.c.obj)
                0x08003338                HAL_UART_Transmit
 .text.HAL_UART_Receive_IT
                0x08003440       0x50 build/lib/liblibdrivers.a(stm32f4xx_hal_uart.c.obj)
                0x08003440                HAL_UART_Receive_IT
 .text.HAL_UART_TxCpltCallback
                0x08003490        0x4 build/lib/liblibdrivers.a(stm32f4xx_hal_uart.c.obj)
                0x08003490                HAL_UART_TxCpltCallback
 .text.HAL_UART_ErrorCallback
                0x08003494        0x4 build/lib/liblibdrivers.a(stm32f4xx_hal_uart.c.obj)
                0x08003494                HAL_UART_ErrorCallback
 .text.UART_DMAAbortOnError
                0x08003498       0x10 build/lib/liblibdrivers.a(stm32f4xx_hal_uart.c.obj)
 .text.HAL_UARTEx_RxEventCallback
                0x080034a8        0x4 build/lib/liblibdrivers.a(stm32f4xx_hal_uart.c.obj)
                0x080034a8                HAL_UARTEx_RxEventCallback
 .text.UART_Receive_IT.part.0.isra.0
                0x080034ac       0xc0 build/lib/liblibdrivers.a(stm32f4xx_hal_uart.c.obj)
 .text.HAL_UART_IRQHandler
                0x0800356c      0x364 build/lib/liblibdrivers.a(stm32f4xx_hal_uart.c.obj)
                0x0800356c                HAL_UART_IRQHandler
 .text.FSMC_NORSRAM_Init
                0x080038d0       0x6c build/lib/liblibdrivers.a(stm32f4xx_ll_fsmc.c.obj)
                0x080038d0                FSMC_NORSRAM_Init
 .text.FSMC_NORSRAM_Timing_Init
                0x0800393c       0x44 build/lib/liblibdrivers.a(stm32f4xx_ll_fsmc.c.obj)
                0x0800393c                FSMC_NORSRAM_Timing_Init
 .text.FSMC_NORSRAM_Extended_Timing_Init
                0x08003980       0x44 build/lib/liblibdrivers.a(stm32f4xx_ll_fsmc.c.obj)
                0x08003980                FSMC_NORSRAM_Extended_Timing_Init
 .text._ZN3Key12stateHandlerEh
                0x080039c4       0x44 build/lib/liblibmodule.a(key.cpp.obj)
                0x080039c4                Key::stateHandler(unsigned char)
 .text._ZN3Key7handlerEv
                0x08003a08       0x18 build/lib/liblibmodule.a(key.cpp.obj)
                0x08003a08                Key::handler()
 .text.__udivmoddi4
                0x08003a20      0x2bc E:/Tools/Develop/ToolsKits/ARM/arm-gnu-toolchain_v13_3/bin/../lib/gcc/arm-none-eabi/13.3.1/thumb/v7e-m+fp/hard\libgcc.a(_udivmoddi4.o)
                0x08003a20                __udivmoddi4
 .text.selfrel_offset31
                0x08003cdc       0x14 E:/Tools/Develop/ToolsKits/ARM/arm-gnu-toolchain_v13_3/bin/../lib/gcc/arm-none-eabi/13.3.1/thumb/v7e-m+fp/hard\libgcc.a(unwind-arm.o)
 .text.search_EIT_table
                0x08003cf0       0x68 E:/Tools/Develop/ToolsKits/ARM/arm-gnu-toolchain_v13_3/bin/../lib/gcc/arm-none-eabi/13.3.1/thumb/v7e-m+fp/hard\libgcc.a(unwind-arm.o)
 .text.__gnu_unwind_get_pr_addr
                0x08003d58       0x28 E:/Tools/Develop/ToolsKits/ARM/arm-gnu-toolchain_v13_3/bin/../lib/gcc/arm-none-eabi/13.3.1/thumb/v7e-m+fp/hard\libgcc.a(unwind-arm.o)
 .text.get_eit_entry
                0x08003d80       0x98 E:/Tools/Develop/ToolsKits/ARM/arm-gnu-toolchain_v13_3/bin/../lib/gcc/arm-none-eabi/13.3.1/thumb/v7e-m+fp/hard\libgcc.a(unwind-arm.o)
 .text.restore_non_core_regs
                0x08003e18       0x58 E:/Tools/Develop/ToolsKits/ARM/arm-gnu-toolchain_v13_3/bin/../lib/gcc/arm-none-eabi/13.3.1/thumb/v7e-m+fp/hard\libgcc.a(unwind-arm.o)
 .text._Unwind_decode_typeinfo_ptr.constprop.0
                0x08003e70        0xc E:/Tools/Develop/ToolsKits/ARM/arm-gnu-toolchain_v13_3/bin/../lib/gcc/arm-none-eabi/13.3.1/thumb/v7e-m+fp/hard\libgcc.a(unwind-arm.o)
 .text._Unwind_DebugHook
                0x08003e7c        0x4 E:/Tools/Develop/ToolsKits/ARM/arm-gnu-toolchain_v13_3/bin/../lib/gcc/arm-none-eabi/13.3.1/thumb/v7e-m+fp/hard\libgcc.a(unwind-arm.o)
 .text.unwind_phase2
                0x08003e80       0x3c E:/Tools/Develop/ToolsKits/ARM/arm-gnu-toolchain_v13_3/bin/../lib/gcc/arm-none-eabi/13.3.1/thumb/v7e-m+fp/hard\libgcc.a(unwind-arm.o)
 .text.unwind_phase2_forced
                0x08003ebc       0xd8 E:/Tools/Develop/ToolsKits/ARM/arm-gnu-toolchain_v13_3/bin/../lib/gcc/arm-none-eabi/13.3.1/thumb/v7e-m+fp/hard\libgcc.a(unwind-arm.o)
 .text.__gnu_Unwind_RaiseException
                0x08003f94       0x68 E:/Tools/Develop/ToolsKits/ARM/arm-gnu-toolchain_v13_3/bin/../lib/gcc/arm-none-eabi/13.3.1/thumb/v7e-m+fp/hard\libgcc.a(unwind-arm.o)
                0x08003f94                __gnu_Unwind_RaiseException
 .text.__gnu_Unwind_ForcedUnwind
                0x08003ffc       0x10 E:/Tools/Develop/ToolsKits/ARM/arm-gnu-toolchain_v13_3/bin/../lib/gcc/arm-none-eabi/13.3.1/thumb/v7e-m+fp/hard\libgcc.a(unwind-arm.o)
                0x08003ffc                __gnu_Unwind_ForcedUnwind
 .text.__gnu_Unwind_Resume
                0x0800400c       0x44 E:/Tools/Develop/ToolsKits/ARM/arm-gnu-toolchain_v13_3/bin/../lib/gcc/arm-none-eabi/13.3.1/thumb/v7e-m+fp/hard\libgcc.a(unwind-arm.o)
                0x0800400c                __gnu_Unwind_Resume
 .text.__gnu_Unwind_Resume_or_Rethrow
                0x08004050       0x14 E:/Tools/Develop/ToolsKits/ARM/arm-gnu-toolchain_v13_3/bin/../lib/gcc/arm-none-eabi/13.3.1/thumb/v7e-m+fp/hard\libgcc.a(unwind-arm.o)
                0x08004050                __gnu_Unwind_Resume_or_Rethrow
 .text._Unwind_VRS_Get
                0x08004064       0x34 E:/Tools/Develop/ToolsKits/ARM/arm-gnu-toolchain_v13_3/bin/../lib/gcc/arm-none-eabi/13.3.1/thumb/v7e-m+fp/hard\libgcc.a(unwind-arm.o)
                0x08004064                _Unwind_VRS_Get
 .text._Unwind_GetGR
                0x08004098       0x1c E:/Tools/Develop/ToolsKits/ARM/arm-gnu-toolchain_v13_3/bin/../lib/gcc/arm-none-eabi/13.3.1/thumb/v7e-m+fp/hard\libgcc.a(unwind-arm.o)
 .text._Unwind_VRS_Set
                0x080040b4       0x34 E:/Tools/Develop/ToolsKits/ARM/arm-gnu-toolchain_v13_3/bin/../lib/gcc/arm-none-eabi/13.3.1/thumb/v7e-m+fp/hard\libgcc.a(unwind-arm.o)
                0x080040b4                _Unwind_VRS_Set
 .text._Unwind_SetGR
                0x080040e8       0x18 E:/Tools/Develop/ToolsKits/ARM/arm-gnu-toolchain_v13_3/bin/../lib/gcc/arm-none-eabi/13.3.1/thumb/v7e-m+fp/hard\libgcc.a(unwind-arm.o)
 .text.__gnu_Unwind_Backtrace
                0x08004100       0x84 E:/Tools/Develop/ToolsKits/ARM/arm-gnu-toolchain_v13_3/bin/../lib/gcc/arm-none-eabi/13.3.1/thumb/v7e-m+fp/hard\libgcc.a(unwind-arm.o)
                0x08004100                __gnu_Unwind_Backtrace
 .text.__gnu_unwind_pr_common
                0x08004184      0x2a4 E:/Tools/Develop/ToolsKits/ARM/arm-gnu-toolchain_v13_3/bin/../lib/gcc/arm-none-eabi/13.3.1/thumb/v7e-m+fp/hard\libgcc.a(unwind-arm.o)
 .text.__aeabi_unwind_cpp_pr0
                0x08004428        0x8 E:/Tools/Develop/ToolsKits/ARM/arm-gnu-toolchain_v13_3/bin/../lib/gcc/arm-none-eabi/13.3.1/thumb/v7e-m+fp/hard\libgcc.a(unwind-arm.o)
                0x08004428                __aeabi_unwind_cpp_pr0
 .text.__aeabi_unwind_cpp_pr1
                0x08004430        0x8 E:/Tools/Develop/ToolsKits/ARM/arm-gnu-toolchain_v13_3/bin/../lib/gcc/arm-none-eabi/13.3.1/thumb/v7e-m+fp/hard\libgcc.a(unwind-arm.o)
                0x08004430                __aeabi_unwind_cpp_pr1
 .text.__aeabi_unwind_cpp_pr2
                0x08004438        0x8 E:/Tools/Develop/ToolsKits/ARM/arm-gnu-toolchain_v13_3/bin/../lib/gcc/arm-none-eabi/13.3.1/thumb/v7e-m+fp/hard\libgcc.a(unwind-arm.o)
                0x08004438                __aeabi_unwind_cpp_pr2
 .text._Unwind_VRS_Pop
                0x08004440      0x2f0 E:/Tools/Develop/ToolsKits/ARM/arm-gnu-toolchain_v13_3/bin/../lib/gcc/arm-none-eabi/13.3.1/thumb/v7e-m+fp/hard\libgcc.a(unwind-arm.o)
                0x08004440                _Unwind_VRS_Pop
 .text.next_unwind_byte
                0x08004730       0x38 E:/Tools/Develop/ToolsKits/ARM/arm-gnu-toolchain_v13_3/bin/../lib/gcc/arm-none-eabi/13.3.1/thumb/v7e-m+fp/hard\libgcc.a(pr-support.o)
 .text.__gnu_unwind_execute
                0x08004768      0x2fc E:/Tools/Develop/ToolsKits/ARM/arm-gnu-toolchain_v13_3/bin/../lib/gcc/arm-none-eabi/13.3.1/thumb/v7e-m+fp/hard\libgcc.a(pr-support.o)
                0x08004768                __gnu_unwind_execute
 .text.abort    0x08004a64       0x10 E:/Tools/Develop/ToolsKits/ARM/arm-gnu-toolchain_v13_3/bin/../lib/gcc/arm-none-eabi/13.3.1/thumb/v7e-m+fp/hard\libc.a(libc_a-abort.o)
                0x08004a64                abort
 .text.stdio_exit_handler
                0x08004a74       0x18 E:/Tools/Develop/ToolsKits/ARM/arm-gnu-toolchain_v13_3/bin/../lib/gcc/arm-none-eabi/13.3.1/thumb/v7e-m+fp/hard\libc.a(libc_a-findfp.o)
 .text.cleanup_stdio
                0x08004a8c       0x40 E:/Tools/Develop/ToolsKits/ARM/arm-gnu-toolchain_v13_3/bin/../lib/gcc/arm-none-eabi/13.3.1/thumb/v7e-m+fp/hard\libc.a(libc_a-findfp.o)
 .text.global_stdio_init.part.0
                0x08004acc       0xf0 E:/Tools/Develop/ToolsKits/ARM/arm-gnu-toolchain_v13_3/bin/../lib/gcc/arm-none-eabi/13.3.1/thumb/v7e-m+fp/hard\libc.a(libc_a-findfp.o)
 .text.__sinit  0x08004bbc       0x3c E:/Tools/Develop/ToolsKits/ARM/arm-gnu-toolchain_v13_3/bin/../lib/gcc/arm-none-eabi/13.3.1/thumb/v7e-m+fp/hard\libc.a(libc_a-findfp.o)
                0x08004bbc                __sinit
 .text.__sfp_lock_acquire
                0x08004bf8        0xc E:/Tools/Develop/ToolsKits/ARM/arm-gnu-toolchain_v13_3/bin/../lib/gcc/arm-none-eabi/13.3.1/thumb/v7e-m+fp/hard\libc.a(libc_a-findfp.o)
                0x08004bf8                __sfp_lock_acquire
 .text.__sfp_lock_release
                0x08004c04        0xc E:/Tools/Develop/ToolsKits/ARM/arm-gnu-toolchain_v13_3/bin/../lib/gcc/arm-none-eabi/13.3.1/thumb/v7e-m+fp/hard\libc.a(libc_a-findfp.o)
                0x08004c04                __sfp_lock_release
 .text._fwalk_sglue
                0x08004c10       0x44 E:/Tools/Develop/ToolsKits/ARM/arm-gnu-toolchain_v13_3/bin/../lib/gcc/arm-none-eabi/13.3.1/thumb/v7e-m+fp/hard\libc.a(libc_a-fwalk.o)
                0x08004c10                _fwalk_sglue
 .text.printf   0x08004c54       0x28 E:/Tools/Develop/ToolsKits/ARM/arm-gnu-toolchain_v13_3/bin/../lib/gcc/arm-none-eabi/13.3.1/thumb/v7e-m+fp/hard\libc.a(libc_a-printf.o)
                0x08004c54                printf
 .text.__sread  0x08004c7c       0x24 E:/Tools/Develop/ToolsKits/ARM/arm-gnu-toolchain_v13_3/bin/../lib/gcc/arm-none-eabi/13.3.1/thumb/v7e-m+fp/hard\libc.a(libc_a-stdio.o)
                0x08004c7c                __sread
 .text.__swrite
                0x08004ca0       0x40 E:/Tools/Develop/ToolsKits/ARM/arm-gnu-toolchain_v13_3/bin/../lib/gcc/arm-none-eabi/13.3.1/thumb/v7e-m+fp/hard\libc.a(libc_a-stdio.o)
                0x08004ca0                __swrite
 .text.__sseek  0x08004ce0       0x24 E:/Tools/Develop/ToolsKits/ARM/arm-gnu-toolchain_v13_3/bin/../lib/gcc/arm-none-eabi/13.3.1/thumb/v7e-m+fp/hard\libc.a(libc_a-stdio.o)
                0x08004ce0                __sseek
 .text.__sclose
                0x08004d04        0x8 E:/Tools/Develop/ToolsKits/ARM/arm-gnu-toolchain_v13_3/bin/../lib/gcc/arm-none-eabi/13.3.1/thumb/v7e-m+fp/hard\libc.a(libc_a-stdio.o)
                0x08004d04                __sclose
 .text.memset   0x08004d0c       0xa4 E:/Tools/Develop/ToolsKits/ARM/arm-gnu-toolchain_v13_3/bin/../lib/gcc/arm-none-eabi/13.3.1/thumb/v7e-m+fp/hard\libc.a(libc_a-memset.o)
                0x08004d0c                memset
 .text.raise    0x08004db0       0x58 E:/Tools/Develop/ToolsKits/ARM/arm-gnu-toolchain_v13_3/bin/../lib/gcc/arm-none-eabi/13.3.1/thumb/v7e-m+fp/hard\libc.a(libc_a-signal.o)
                0x08004db0                raise
 .text._close_r
                0x08004e08       0x24 E:/Tools/Develop/ToolsKits/ARM/arm-gnu-toolchain_v13_3/bin/../lib/gcc/arm-none-eabi/13.3.1/thumb/v7e-m+fp/hard\libc.a(libc_a-closer.o)
                0x08004e08                _close_r
 .text._lseek_r
                0x08004e2c       0x2c E:/Tools/Develop/ToolsKits/ARM/arm-gnu-toolchain_v13_3/bin/../lib/gcc/arm-none-eabi/13.3.1/thumb/v7e-m+fp/hard\libc.a(libc_a-lseekr.o)
                0x08004e2c                _lseek_r
 .text._read_r  0x08004e58       0x2c E:/Tools/Develop/ToolsKits/ARM/arm-gnu-toolchain_v13_3/bin/../lib/gcc/arm-none-eabi/13.3.1/thumb/v7e-m+fp/hard\libc.a(libc_a-readr.o)
                0x08004e58                _read_r
 .text._kill_r  0x08004e84       0x2c E:/Tools/Develop/ToolsKits/ARM/arm-gnu-toolchain_v13_3/bin/../lib/gcc/arm-none-eabi/13.3.1/thumb/v7e-m+fp/hard\libc.a(libc_a-signalr.o)
                0x08004e84                _kill_r
 .text._getpid_r
                0x08004eb0        0x4 E:/Tools/Develop/ToolsKits/ARM/arm-gnu-toolchain_v13_3/bin/../lib/gcc/arm-none-eabi/13.3.1/thumb/v7e-m+fp/hard\libc.a(libc_a-signalr.o)
                0x08004eb0                _getpid_r
 .text._write_r
                0x08004eb4       0x2c E:/Tools/Develop/ToolsKits/ARM/arm-gnu-toolchain_v13_3/bin/../lib/gcc/arm-none-eabi/13.3.1/thumb/v7e-m+fp/hard\libc.a(libc_a-writer.o)
                0x08004eb4                _write_r
 .text.__errno  0x08004ee0        0xc E:/Tools/Develop/ToolsKits/ARM/arm-gnu-toolchain_v13_3/bin/../lib/gcc/arm-none-eabi/13.3.1/thumb/v7e-m+fp/hard\libc.a(libc_a-errno.o)
                0x08004ee0                __errno
 .text.__libc_init_array
                0x08004eec       0x50 E:/Tools/Develop/ToolsKits/ARM/arm-gnu-toolchain_v13_3/bin/../lib/gcc/arm-none-eabi/13.3.1/thumb/v7e-m+fp/hard\libc.a(libc_a-init.o)
                0x08004eec                __libc_init_array
 .text.__retarget_lock_init_recursive
                0x08004f3c        0x4 E:/Tools/Develop/ToolsKits/ARM/arm-gnu-toolchain_v13_3/bin/../lib/gcc/arm-none-eabi/13.3.1/thumb/v7e-m+fp/hard\libc.a(libc_a-lock.o)
                0x08004f3c                __retarget_lock_init_recursive
 .text.__retarget_lock_close_recursive
                0x08004f40        0x4 E:/Tools/Develop/ToolsKits/ARM/arm-gnu-toolchain_v13_3/bin/../lib/gcc/arm-none-eabi/13.3.1/thumb/v7e-m+fp/hard\libc.a(libc_a-lock.o)
                0x08004f40                __retarget_lock_close_recursive
 .text.__retarget_lock_acquire_recursive
                0x08004f44        0x4 E:/Tools/Develop/ToolsKits/ARM/arm-gnu-toolchain_v13_3/bin/../lib/gcc/arm-none-eabi/13.3.1/thumb/v7e-m+fp/hard\libc.a(libc_a-lock.o)
                0x08004f44                __retarget_lock_acquire_recursive
 .text.__retarget_lock_release_recursive
                0x08004f48        0x4 E:/Tools/Develop/ToolsKits/ARM/arm-gnu-toolchain_v13_3/bin/../lib/gcc/arm-none-eabi/13.3.1/thumb/v7e-m+fp/hard\libc.a(libc_a-lock.o)
                0x08004f48                __retarget_lock_release_recursive
 .text.startup.register_fini
                0x08004f4c       0x14 E:/Tools/Develop/ToolsKits/ARM/arm-gnu-toolchain_v13_3/bin/../lib/gcc/arm-none-eabi/13.3.1/thumb/v7e-m+fp/hard\libc.a(libc_a-__call_atexit.o)
 .text.atexit   0x08004f60        0xc E:/Tools/Develop/ToolsKits/ARM/arm-gnu-toolchain_v13_3/bin/../lib/gcc/arm-none-eabi/13.3.1/thumb/v7e-m+fp/hard\libc.a(libc_a-atexit.o)
                0x08004f60                atexit
 .text._malloc_trim_r
                0x08004f6c       0xb8 E:/Tools/Develop/ToolsKits/ARM/arm-gnu-toolchain_v13_3/bin/../lib/gcc/arm-none-eabi/13.3.1/thumb/v7e-m+fp/hard\libc.a(libc_a-freer.o)
                0x08004f6c                _malloc_trim_r
 .text._free_r  0x08005024      0x1f8 E:/Tools/Develop/ToolsKits/ARM/arm-gnu-toolchain_v13_3/bin/../lib/gcc/arm-none-eabi/13.3.1/thumb/v7e-m+fp/hard\libc.a(libc_a-freer.o)
                0x08005024                _free_r
 .text._malloc_r
                0x0800521c      0x564 E:/Tools/Develop/ToolsKits/ARM/arm-gnu-toolchain_v13_3/bin/../lib/gcc/arm-none-eabi/13.3.1/thumb/v7e-m+fp/hard\libc.a(libc_a-mallocr.o)
                0x0800521c                _malloc_r
 .text.__malloc_lock
                0x08005780        0xc E:/Tools/Develop/ToolsKits/ARM/arm-gnu-toolchain_v13_3/bin/../lib/gcc/arm-none-eabi/13.3.1/thumb/v7e-m+fp/hard\libc.a(libc_a-mlock.o)
                0x08005780                __malloc_lock
 .text.__malloc_unlock
                0x0800578c        0xc E:/Tools/Develop/ToolsKits/ARM/arm-gnu-toolchain_v13_3/bin/../lib/gcc/arm-none-eabi/13.3.1/thumb/v7e-m+fp/hard\libc.a(libc_a-mlock.o)
                0x0800578c                __malloc_unlock
 .text._vfprintf_r
                0x08005798     0x1c24 E:/Tools/Develop/ToolsKits/ARM/arm-gnu-toolchain_v13_3/bin/../lib/gcc/arm-none-eabi/13.3.1/thumb/v7e-m+fp/hard\libc.a(libc_a-vfprintf.o)
                0x08005798                _vfprintf_r
 .text.__sbprintf
                0x080073bc       0x80 E:/Tools/Develop/ToolsKits/ARM/arm-gnu-toolchain_v13_3/bin/../lib/gcc/arm-none-eabi/13.3.1/thumb/v7e-m+fp/hard\libc.a(libc_a-vfprintf.o)
 .text.__sprint_r
                0x0800743c       0x20 E:/Tools/Develop/ToolsKits/ARM/arm-gnu-toolchain_v13_3/bin/../lib/gcc/arm-none-eabi/13.3.1/thumb/v7e-m+fp/hard\libc.a(libc_a-sprint_r.o)
                0x0800743c                __sprint_r
 .text._fclose_r
                0x0800745c       0xc0 E:/Tools/Develop/ToolsKits/ARM/arm-gnu-toolchain_v13_3/bin/../lib/gcc/arm-none-eabi/13.3.1/thumb/v7e-m+fp/hard\libc.a(libc_a-fclose.o)
                0x0800745c                _fclose_r
 .text.__sflush_r
                0x0800751c      0x138 E:/Tools/Develop/ToolsKits/ARM/arm-gnu-toolchain_v13_3/bin/../lib/gcc/arm-none-eabi/13.3.1/thumb/v7e-m+fp/hard\libc.a(libc_a-fflush.o)
                0x0800751c                __sflush_r
 .text._fflush_r
                0x08007654       0x54 E:/Tools/Develop/ToolsKits/ARM/arm-gnu-toolchain_v13_3/bin/../lib/gcc/arm-none-eabi/13.3.1/thumb/v7e-m+fp/hard\libc.a(libc_a-fflush.o)
                0x08007654                _fflush_r
 .text.__sfvwrite_r
                0x080076a8      0x300 E:/Tools/Develop/ToolsKits/ARM/arm-gnu-toolchain_v13_3/bin/../lib/gcc/arm-none-eabi/13.3.1/thumb/v7e-m+fp/hard\libc.a(libc_a-fvwrite.o)
                0x080076a8                __sfvwrite_r
 .text.__swsetup_r
                0x080079a8       0xc4 E:/Tools/Develop/ToolsKits/ARM/arm-gnu-toolchain_v13_3/bin/../lib/gcc/arm-none-eabi/13.3.1/thumb/v7e-m+fp/hard\libc.a(libc_a-wsetup.o)
                0x080079a8                __swsetup_r
 .text.memmove  0x08007a6c      0x100 E:/Tools/Develop/ToolsKits/ARM/arm-gnu-toolchain_v13_3/bin/../lib/gcc/arm-none-eabi/13.3.1/thumb/v7e-m+fp/hard\libc.a(libc_a-memmove.o)
                0x08007a6c                memmove
 .text.strncpy  0x08007b6c       0x68 E:/Tools/Develop/ToolsKits/ARM/arm-gnu-toolchain_v13_3/bin/../lib/gcc/arm-none-eabi/13.3.1/thumb/v7e-m+fp/hard\libc.a(libc_a-strncpy.o)
                0x08007b6c                strncpy
 .text.__locale_mb_cur_max
                0x08007bd4        0xc E:/Tools/Develop/ToolsKits/ARM/arm-gnu-toolchain_v13_3/bin/../lib/gcc/arm-none-eabi/13.3.1/thumb/v7e-m+fp/hard\libc.a(libc_a-locale.o)
                0x08007bd4                __locale_mb_cur_max
 .text._localeconv_r
                0x08007be0        0x8 E:/Tools/Develop/ToolsKits/ARM/arm-gnu-toolchain_v13_3/bin/../lib/gcc/arm-none-eabi/13.3.1/thumb/v7e-m+fp/hard\libc.a(libc_a-localeconv.o)
                0x08007be0                _localeconv_r
 .text._sbrk_r  0x08007be8       0x24 E:/Tools/Develop/ToolsKits/ARM/arm-gnu-toolchain_v13_3/bin/../lib/gcc/arm-none-eabi/13.3.1/thumb/v7e-m+fp/hard\libc.a(libc_a-sbrkr.o)
                0x08007be8                _sbrk_r
 .text.__libc_fini_array
                0x08007c0c       0x28 E:/Tools/Develop/ToolsKits/ARM/arm-gnu-toolchain_v13_3/bin/../lib/gcc/arm-none-eabi/13.3.1/thumb/v7e-m+fp/hard\libc.a(libc_a-fini.o)
                0x08007c0c                __libc_fini_array
 .text.sysconf  0x08007c34       0x1c E:/Tools/Develop/ToolsKits/ARM/arm-gnu-toolchain_v13_3/bin/../lib/gcc/arm-none-eabi/13.3.1/thumb/v7e-m+fp/hard\libc.a(libc_a-sysconf.o)
                0x08007c34                sysconf
 .text.frexp    0x08007c50       0x64 E:/Tools/Develop/ToolsKits/ARM/arm-gnu-toolchain_v13_3/bin/../lib/gcc/arm-none-eabi/13.3.1/thumb/v7e-m+fp/hard\libc.a(libm_a-s_frexp.o)
                0x08007c50                frexp
 .text.__register_exitproc
                0x08007cb4       0x80 E:/Tools/Develop/ToolsKits/ARM/arm-gnu-toolchain_v13_3/bin/../lib/gcc/arm-none-eabi/13.3.1/thumb/v7e-m+fp/hard\libc.a(libc_a-__atexit.o)
                0x08007cb4                __register_exitproc
 .text.quorem   0x08007d34      0x12c E:/Tools/Develop/ToolsKits/ARM/arm-gnu-toolchain_v13_3/bin/../lib/gcc/arm-none-eabi/13.3.1/thumb/v7e-m+fp/hard\libc.a(libc_a-dtoa.o)
 .text._dtoa_r  0x08007e60      0xe80 E:/Tools/Develop/ToolsKits/ARM/arm-gnu-toolchain_v13_3/bin/../lib/gcc/arm-none-eabi/13.3.1/thumb/v7e-m+fp/hard\libc.a(libc_a-dtoa.o)
                0x08007e60                _dtoa_r
 .text.__ascii_mbtowc
                0x08008ce0       0x2c E:/Tools/Develop/ToolsKits/ARM/arm-gnu-toolchain_v13_3/bin/../lib/gcc/arm-none-eabi/13.3.1/thumb/v7e-m+fp/hard\libc.a(libc_a-mbtowc_r.o)
                0x08008ce0                __ascii_mbtowc
 .text._Balloc  0x08008d0c       0x4c E:/Tools/Develop/ToolsKits/ARM/arm-gnu-toolchain_v13_3/bin/../lib/gcc/arm-none-eabi/13.3.1/thumb/v7e-m+fp/hard\libc.a(libc_a-mprec.o)
                0x08008d0c                _Balloc
 .text._Bfree   0x08008d58       0x14 E:/Tools/Develop/ToolsKits/ARM/arm-gnu-toolchain_v13_3/bin/../lib/gcc/arm-none-eabi/13.3.1/thumb/v7e-m+fp/hard\libc.a(libc_a-mprec.o)
                0x08008d58                _Bfree
 .text.__multadd
                0x08008d6c       0xa0 E:/Tools/Develop/ToolsKits/ARM/arm-gnu-toolchain_v13_3/bin/../lib/gcc/arm-none-eabi/13.3.1/thumb/v7e-m+fp/hard\libc.a(libc_a-mprec.o)
                0x08008d6c                __multadd
 .text.__hi0bits
                0x08008e0c       0x44 E:/Tools/Develop/ToolsKits/ARM/arm-gnu-toolchain_v13_3/bin/../lib/gcc/arm-none-eabi/13.3.1/thumb/v7e-m+fp/hard\libc.a(libc_a-mprec.o)
                0x08008e0c                __hi0bits
 .text.__lo0bits
                0x08008e50       0x60 E:/Tools/Develop/ToolsKits/ARM/arm-gnu-toolchain_v13_3/bin/../lib/gcc/arm-none-eabi/13.3.1/thumb/v7e-m+fp/hard\libc.a(libc_a-mprec.o)
                0x08008e50                __lo0bits
 .text.__i2b    0x08008eb0       0x5c E:/Tools/Develop/ToolsKits/ARM/arm-gnu-toolchain_v13_3/bin/../lib/gcc/arm-none-eabi/13.3.1/thumb/v7e-m+fp/hard\libc.a(libc_a-mprec.o)
                0x08008eb0                __i2b
 .text.__multiply
                0x08008f0c      0x16c E:/Tools/Develop/ToolsKits/ARM/arm-gnu-toolchain_v13_3/bin/../lib/gcc/arm-none-eabi/13.3.1/thumb/v7e-m+fp/hard\libc.a(libc_a-mprec.o)
                0x08008f0c                __multiply
 .text.__pow5mult
                0x08009078       0xb4 E:/Tools/Develop/ToolsKits/ARM/arm-gnu-toolchain_v13_3/bin/../lib/gcc/arm-none-eabi/13.3.1/thumb/v7e-m+fp/hard\libc.a(libc_a-mprec.o)
                0x08009078                __pow5mult
 .text.__lshift
                0x0800912c       0xf0 E:/Tools/Develop/ToolsKits/ARM/arm-gnu-toolchain_v13_3/bin/../lib/gcc/arm-none-eabi/13.3.1/thumb/v7e-m+fp/hard\libc.a(libc_a-mprec.o)
                0x0800912c                __lshift
 .text.__mcmp   0x0800921c       0x44 E:/Tools/Develop/ToolsKits/ARM/arm-gnu-toolchain_v13_3/bin/../lib/gcc/arm-none-eabi/13.3.1/thumb/v7e-m+fp/hard\libc.a(libc_a-mprec.o)
                0x0800921c                __mcmp
 .text.__mdiff  0x08009260      0x178 E:/Tools/Develop/ToolsKits/ARM/arm-gnu-toolchain_v13_3/bin/../lib/gcc/arm-none-eabi/13.3.1/thumb/v7e-m+fp/hard\libc.a(libc_a-mprec.o)
                0x08009260                __mdiff
 .text.__d2b    0x080093d8       0xc0 E:/Tools/Develop/ToolsKits/ARM/arm-gnu-toolchain_v13_3/bin/../lib/gcc/arm-none-eabi/13.3.1/thumb/v7e-m+fp/hard\libc.a(libc_a-mprec.o)
                0x080093d8                __d2b
 .text._realloc_r
                0x08009498      0x344 E:/Tools/Develop/ToolsKits/ARM/arm-gnu-toolchain_v13_3/bin/../lib/gcc/arm-none-eabi/13.3.1/thumb/v7e-m+fp/hard\libc.a(libc_a-reallocr.o)
                0x08009498                _realloc_r
 .text.__ascii_wctomb
                0x080097dc       0x1c E:/Tools/Develop/ToolsKits/ARM/arm-gnu-toolchain_v13_3/bin/../lib/gcc/arm-none-eabi/13.3.1/thumb/v7e-m+fp/hard\libc.a(libc_a-wctomb_r.o)
                0x080097dc                __ascii_wctomb
 .text._wcrtomb_r
                0x080097f8       0x4c E:/Tools/Develop/ToolsKits/ARM/arm-gnu-toolchain_v13_3/bin/../lib/gcc/arm-none-eabi/13.3.1/thumb/v7e-m+fp/hard\libc.a(libc_a-wcrtomb.o)
                0x080097f8                _wcrtomb_r
 .text._wcsrtombs_r
                0x08009844       0x18 E:/Tools/Develop/ToolsKits/ARM/arm-gnu-toolchain_v13_3/bin/../lib/gcc/arm-none-eabi/13.3.1/thumb/v7e-m+fp/hard\libc.a(libc_a-wcsrtombs.o)
                0x08009844                _wcsrtombs_r
 .text.__smakebuf_r
                0x0800985c       0xdc E:/Tools/Develop/ToolsKits/ARM/arm-gnu-toolchain_v13_3/bin/../lib/gcc/arm-none-eabi/13.3.1/thumb/v7e-m+fp/hard\libc.a(libc_a-makebuf.o)
                0x0800985c                __smakebuf_r
 .text._fstat_r
                0x08009938       0x2c E:/Tools/Develop/ToolsKits/ARM/arm-gnu-toolchain_v13_3/bin/../lib/gcc/arm-none-eabi/13.3.1/thumb/v7e-m+fp/hard\libc.a(libc_a-fstatr.o)
                0x08009938                _fstat_r
 .text._isatty_r
                0x08009964       0x24 E:/Tools/Develop/ToolsKits/ARM/arm-gnu-toolchain_v13_3/bin/../lib/gcc/arm-none-eabi/13.3.1/thumb/v7e-m+fp/hard\libc.a(libc_a-isattyr.o)
                0x08009964                _isatty_r
 .text.__assert_func
                0x08009988       0x40 E:/Tools/Develop/ToolsKits/ARM/arm-gnu-toolchain_v13_3/bin/../lib/gcc/arm-none-eabi/13.3.1/thumb/v7e-m+fp/hard\libc.a(libc_a-assert.o)
                0x08009988                __assert_func
 .text._calloc_r
                0x080099c8       0x6c E:/Tools/Develop/ToolsKits/ARM/arm-gnu-toolchain_v13_3/bin/../lib/gcc/arm-none-eabi/13.3.1/thumb/v7e-m+fp/hard\libc.a(libc_a-callocr.o)
                0x080099c8                _calloc_r
 .text._wcsnrtombs_l
                0x08009a34       0xfc E:/Tools/Develop/ToolsKits/ARM/arm-gnu-toolchain_v13_3/bin/../lib/gcc/arm-none-eabi/13.3.1/thumb/v7e-m+fp/hard\libc.a(libc_a-wcsnrtombs.o)
                0x08009a34                _wcsnrtombs_l
 .text._wcsnrtombs_r
                0x08009b30       0x24 E:/Tools/Develop/ToolsKits/ARM/arm-gnu-toolchain_v13_3/bin/../lib/gcc/arm-none-eabi/13.3.1/thumb/v7e-m+fp/hard\libc.a(libc_a-wcsnrtombs.o)
                0x08009b30                _wcsnrtombs_r
 .text.fiprintf
                0x08009b54       0x28 E:/Tools/Develop/ToolsKits/ARM/arm-gnu-toolchain_v13_3/bin/../lib/gcc/arm-none-eabi/13.3.1/thumb/v7e-m+fp/hard\libc.a(libc_a-fiprintf.o)
                0x08009b54                fiprintf
 .text._vfiprintf_r
                0x08009b7c      0xe68 E:/Tools/Develop/ToolsKits/ARM/arm-gnu-toolchain_v13_3/bin/../lib/gcc/arm-none-eabi/13.3.1/thumb/v7e-m+fp/hard\libc.a(libc_a-vfiprintf.o)
                0x08009b7c                _vfiprintf_r
 .text.__sbprintf
                0x0800a9e4       0x80 E:/Tools/Develop/ToolsKits/ARM/arm-gnu-toolchain_v13_3/bin/../lib/gcc/arm-none-eabi/13.3.1/thumb/v7e-m+fp/hard\libc.a(libc_a-vfiprintf.o)
 *(.glue_7)
 .glue_7        0x0800aa64        0x0 linker stubs
 *(.glue_7t)
 .glue_7t       0x0800aa64        0x0 linker stubs
 *(.eh_frame)
 .eh_frame      0x0800aa64        0x0 E:/Tools/Develop/ToolsKits/ARM/arm-gnu-toolchain_v13_3/bin/../lib/gcc/arm-none-eabi/13.3.1/thumb/v7e-m+fp/hard/crtbegin.o
 *(.init)
 .init          0x0800aa64        0x4 E:/Tools/Develop/ToolsKits/ARM/arm-gnu-toolchain_v13_3/bin/../lib/gcc/arm-none-eabi/13.3.1/thumb/v7e-m+fp/hard/crti.o
                0x0800aa64                _init
 .init          0x0800aa68        0x8 E:/Tools/Develop/ToolsKits/ARM/arm-gnu-toolchain_v13_3/bin/../lib/gcc/arm-none-eabi/13.3.1/thumb/v7e-m+fp/hard/crtn.o
 *(.fini)
 .fini          0x0800aa70        0x4 E:/Tools/Develop/ToolsKits/ARM/arm-gnu-toolchain_v13_3/bin/../lib/gcc/arm-none-eabi/13.3.1/thumb/v7e-m+fp/hard/crti.o
                0x0800aa70                _fini
 .fini          0x0800aa74        0x8 E:/Tools/Develop/ToolsKits/ARM/arm-gnu-toolchain_v13_3/bin/../lib/gcc/arm-none-eabi/13.3.1/thumb/v7e-m+fp/hard/crtn.o
                0x0800aa7c                        . = ALIGN (0x4)
                0x0800aa7c                        _etext = .

.vfp11_veneer   0x0800aa7c        0x0
 .vfp11_veneer  0x0800aa7c        0x0 linker stubs

.v4_bx          0x0800aa7c        0x0
 .v4_bx         0x0800aa7c        0x0 linker stubs

.iplt           0x0800aa7c        0x0
 .iplt          0x0800aa7c        0x0 E:/Tools/Develop/ToolsKits/ARM/arm-gnu-toolchain_v13_3/bin/../lib/gcc/arm-none-eabi/13.3.1/thumb/v7e-m+fp/hard/crtbegin.o

.rodata         0x0800aa80      0x414
                0x0800aa80                        . = ALIGN (0x4)
 *(.rodata)
 *(.rodata*)
 .rodata.APBPrescTable
                0x0800aa80        0x8 CMakeFiles/Furina.elf.dir/Core/system_stm32f4xx.c.obj
                0x0800aa80                APBPrescTable
 .rodata.AHBPrescTable
                0x0800aa88       0x10 CMakeFiles/Furina.elf.dir/Core/system_stm32f4xx.c.obj
                0x0800aa88                AHBPrescTable
 .rodata._Z8adc1_isrv.str1.4
                0x0800aa98      0x1af build/lib/liblibapp.a(app.cpp.obj)
                                  0x5 (size before relaxing)
 *fill*         0x0800ac47        0x1 
 .rodata.flagBitshiftOffset.0
                0x0800ac48        0x8 build/lib/liblibdrivers.a(stm32f4xx_hal_dma.c.obj)
 .rodata._vfprintf_r.str1.4
                0x0800ac50       0x42 E:/Tools/Develop/ToolsKits/ARM/arm-gnu-toolchain_v13_3/bin/../lib/gcc/arm-none-eabi/13.3.1/thumb/v7e-m+fp/hard\libc.a(libc_a-vfprintf.o)
 .rodata.zeroes.0
                0x0800ac50       0x10 E:/Tools/Develop/ToolsKits/ARM/arm-gnu-toolchain_v13_3/bin/../lib/gcc/arm-none-eabi/13.3.1/thumb/v7e-m+fp/hard\libc.a(libc_a-vfprintf.o)
 .rodata.blanks.1
                0x0800ac60       0x10 E:/Tools/Develop/ToolsKits/ARM/arm-gnu-toolchain_v13_3/bin/../lib/gcc/arm-none-eabi/13.3.1/thumb/v7e-m+fp/hard\libc.a(libc_a-vfprintf.o)
 .rodata.str1.4
                0x0800ac70       0x4c E:/Tools/Develop/ToolsKits/ARM/arm-gnu-toolchain_v13_3/bin/../lib/gcc/arm-none-eabi/13.3.1/thumb/v7e-m+fp/hard\libc.a(libc_a-locale.o)
 .rodata._dtoa_r.str1.4
                0x0800ac70       0x81 E:/Tools/Develop/ToolsKits/ARM/arm-gnu-toolchain_v13_3/bin/../lib/gcc/arm-none-eabi/13.3.1/thumb/v7e-m+fp/hard\libc.a(libc_a-dtoa.o)
 .rodata.__multadd.str1.4
                0x0800ac70       0x6e E:/Tools/Develop/ToolsKits/ARM/arm-gnu-toolchain_v13_3/bin/../lib/gcc/arm-none-eabi/13.3.1/thumb/v7e-m+fp/hard\libc.a(libc_a-mprec.o)
 .rodata.p05.0  0x0800ac70        0xc E:/Tools/Develop/ToolsKits/ARM/arm-gnu-toolchain_v13_3/bin/../lib/gcc/arm-none-eabi/13.3.1/thumb/v7e-m+fp/hard\libc.a(libc_a-mprec.o)
 *fill*         0x0800ac7c        0x4 
 .rodata.__mprec_bigtens
                0x0800ac80       0x28 E:/Tools/Develop/ToolsKits/ARM/arm-gnu-toolchain_v13_3/bin/../lib/gcc/arm-none-eabi/13.3.1/thumb/v7e-m+fp/hard\libc.a(libc_a-mprec.o)
                0x0800ac80                __mprec_bigtens
 .rodata.__mprec_tens
                0x0800aca8       0xc8 E:/Tools/Develop/ToolsKits/ARM/arm-gnu-toolchain_v13_3/bin/../lib/gcc/arm-none-eabi/13.3.1/thumb/v7e-m+fp/hard\libc.a(libc_a-mprec.o)
                0x0800aca8                __mprec_tens
 .rodata._ctype_
                0x0800ad70      0x101 E:/Tools/Develop/ToolsKits/ARM/arm-gnu-toolchain_v13_3/bin/../lib/gcc/arm-none-eabi/13.3.1/thumb/v7e-m+fp/hard\libc.a(libc_a-ctype_.o)
                0x0800ad70                _ctype_
 .rodata.__assert_func.str1.4
                0x0800ae71       0x43 E:/Tools/Develop/ToolsKits/ARM/arm-gnu-toolchain_v13_3/bin/../lib/gcc/arm-none-eabi/13.3.1/thumb/v7e-m+fp/hard\libc.a(libc_a-assert.o)
 .rodata._vfiprintf_r.str1.4
                0x0800ae71       0x2f E:/Tools/Develop/ToolsKits/ARM/arm-gnu-toolchain_v13_3/bin/../lib/gcc/arm-none-eabi/13.3.1/thumb/v7e-m+fp/hard\libc.a(libc_a-vfiprintf.o)
 *fill*         0x0800ae71        0x3 
 .rodata.zeroes.0
                0x0800ae74       0x10 E:/Tools/Develop/ToolsKits/ARM/arm-gnu-toolchain_v13_3/bin/../lib/gcc/arm-none-eabi/13.3.1/thumb/v7e-m+fp/hard\libc.a(libc_a-vfiprintf.o)
 .rodata.blanks.1
                0x0800ae84       0x10 E:/Tools/Develop/ToolsKits/ARM/arm-gnu-toolchain_v13_3/bin/../lib/gcc/arm-none-eabi/13.3.1/thumb/v7e-m+fp/hard\libc.a(libc_a-vfiprintf.o)
                0x0800ae94                        . = ALIGN (0x4)

.ARM.extab      0x0800ae94       0x48
                0x0800ae94                        . = ALIGN (0x4)
 *(.ARM.extab* .gnu.linkonce.armextab.*)
 .ARM.extab.text.HAL_ADC_ConvCpltCallback
                0x0800ae94        0xc CMakeFiles/Furina.elf.dir/Application/Base/ISR.cpp.obj
 .ARM.extab.text.startup.main
                0x0800aea0        0xc build/lib/liblibapp.a(main.cpp.obj)
 .ARM.extab.text._Z8app_initv
                0x0800aeac        0xc build/lib/liblibapp.a(app.cpp.obj)
 .ARM.extab.text._Z11key_handlerv
                0x0800aeb8        0xc build/lib/liblibapp.a(app.cpp.obj)
 .ARM.extab.text.HAL_UART_RxCpltCallback
                0x0800aec4        0xc build/lib/liblibapp.a(app.cpp.obj)
 .ARM.extab.text._ZN3Key7handlerEv
                0x0800aed0        0xc build/lib/liblibmodule.a(key.cpp.obj)
                0x0800aedc                        . = ALIGN (0x4)

.ARM            0x0800aedc       0xf8
                0x0800aedc                        . = ALIGN (0x4)
                0x0800aedc                        __exidx_start = .
 *(.ARM.exidx*)
 .ARM.exidx     0x0800aedc        0x8 E:/Tools/Develop/ToolsKits/ARM/arm-gnu-toolchain_v13_3/bin/../lib/gcc/arm-none-eabi/13.3.1/thumb/v7e-m+fp/hard\libc.a(libc_a-memcpy.o)
 .ARM.exidx     0x0800aee4        0x0 E:/Tools/Develop/ToolsKits/ARM/arm-gnu-toolchain_v13_3/bin/../lib/gcc/arm-none-eabi/13.3.1/thumb/v7e-m+fp/hard\libc.a(libc_a-memchr.o)
                                  0x8 (size before relaxing)
 .ARM.exidx     0x0800aee4        0x0 E:/Tools/Develop/ToolsKits/ARM/arm-gnu-toolchain_v13_3/bin/../lib/gcc/arm-none-eabi/13.3.1/thumb/v7e-m+fp/hard\libc.a(libc_a-strlen.o)
                                  0x8 (size before relaxing)
 .ARM.exidx.text.HAL_ADC_ConvCpltCallback
                0x0800aee4        0x8 CMakeFiles/Furina.elf.dir/Application/Base/ISR.cpp.obj
 .ARM.exidx.text.EXTI0_IRQHandler
                0x0800aeec        0x8 CMakeFiles/Furina.elf.dir/Application/Base/ISR.cpp.obj
 .ARM.exidx.text.DMA2_Stream6_IRQHandler
                0x0800aef4        0x0 CMakeFiles/Furina.elf.dir/Application/Base/ISR.cpp.obj
                                  0x8 (size before relaxing)
 .ARM.exidx.text._Z8BaseInitv
                0x0800aef4        0x8 build/lib/liblibapp.a(baseInit.cpp.obj)
 .ARM.exidx.text.HAL_MspInit
                0x0800aefc        0x8 build/lib/liblibapp.a(baseInit.cpp.obj)
 .ARM.exidx.text.HAL_InitTick
                0x0800af04        0x8 build/lib/liblibapp.a(baseInit.cpp.obj)
 .ARM.exidx.text.TIM7_IRQHandler
                0x0800af0c        0x8 build/lib/liblibapp.a(baseInit.cpp.obj)
 .ARM.exidx.text._Z18background_handlerv
                0x0800af14        0x0 build/lib/liblibapp.a(main.cpp.obj)
                                  0x8 (size before relaxing)
 .ARM.exidx.text.startup.main
                0x0800af14        0x8 build/lib/liblibapp.a(main.cpp.obj)
 .ARM.exidx.text._Z8app_initv
                0x0800af1c        0x8 build/lib/liblibapp.a(app.cpp.obj)
 .ARM.exidx.text._Z11key_handlerv
                0x0800af24        0x8 build/lib/liblibapp.a(app.cpp.obj)
 .ARM.exidx.text._Z8adc1_isrv
                0x0800af2c        0x8 build/lib/liblibapp.a(app.cpp.obj)
 .ARM.exidx.text.HAL_UART_RxCpltCallback
                0x0800af34       0x10 build/lib/liblibapp.a(app.cpp.obj)
                                  0x8 (size before relaxing)
 .ARM.exidx.text._ZN3Key12stateHandlerEh
                0x0800af44        0x0 build/lib/liblibmodule.a(key.cpp.obj)
                                  0x8 (size before relaxing)
 .ARM.exidx.text._ZN3Key7handlerEv
                0x0800af44        0x8 build/lib/liblibmodule.a(key.cpp.obj)
 .ARM.exidx.text.__udivmoddi4
                0x0800af4c        0x8 E:/Tools/Develop/ToolsKits/ARM/arm-gnu-toolchain_v13_3/bin/../lib/gcc/arm-none-eabi/13.3.1/thumb/v7e-m+fp/hard\libgcc.a(_udivmoddi4.o)
 .ARM.exidx.text.selfrel_offset31
                0x0800af54        0x0 E:/Tools/Develop/ToolsKits/ARM/arm-gnu-toolchain_v13_3/bin/../lib/gcc/arm-none-eabi/13.3.1/thumb/v7e-m+fp/hard\libgcc.a(unwind-arm.o)
                                  0x8 (size before relaxing)
 .ARM.exidx.text.search_EIT_table
                0x0800af54        0x0 E:/Tools/Develop/ToolsKits/ARM/arm-gnu-toolchain_v13_3/bin/../lib/gcc/arm-none-eabi/13.3.1/thumb/v7e-m+fp/hard\libgcc.a(unwind-arm.o)
                                  0x8 (size before relaxing)
 .ARM.exidx.text.__gnu_unwind_get_pr_addr
                0x0800af54        0x0 E:/Tools/Develop/ToolsKits/ARM/arm-gnu-toolchain_v13_3/bin/../lib/gcc/arm-none-eabi/13.3.1/thumb/v7e-m+fp/hard\libgcc.a(unwind-arm.o)
                                  0x8 (size before relaxing)
 .ARM.exidx.text.get_eit_entry
                0x0800af54        0x8 E:/Tools/Develop/ToolsKits/ARM/arm-gnu-toolchain_v13_3/bin/../lib/gcc/arm-none-eabi/13.3.1/thumb/v7e-m+fp/hard\libgcc.a(unwind-arm.o)
 .ARM.exidx.text.restore_non_core_regs
                0x0800af5c        0x8 E:/Tools/Develop/ToolsKits/ARM/arm-gnu-toolchain_v13_3/bin/../lib/gcc/arm-none-eabi/13.3.1/thumb/v7e-m+fp/hard\libgcc.a(unwind-arm.o)
 .ARM.exidx.text._Unwind_decode_typeinfo_ptr.constprop.0
                0x0800af64        0x8 E:/Tools/Develop/ToolsKits/ARM/arm-gnu-toolchain_v13_3/bin/../lib/gcc/arm-none-eabi/13.3.1/thumb/v7e-m+fp/hard\libgcc.a(unwind-arm.o)
 .ARM.exidx.text._Unwind_DebugHook
                0x0800af6c        0x0 E:/Tools/Develop/ToolsKits/ARM/arm-gnu-toolchain_v13_3/bin/../lib/gcc/arm-none-eabi/13.3.1/thumb/v7e-m+fp/hard\libgcc.a(unwind-arm.o)
                                  0x8 (size before relaxing)
 .ARM.exidx.text.unwind_phase2
                0x0800af6c        0x8 E:/Tools/Develop/ToolsKits/ARM/arm-gnu-toolchain_v13_3/bin/../lib/gcc/arm-none-eabi/13.3.1/thumb/v7e-m+fp/hard\libgcc.a(unwind-arm.o)
 .ARM.exidx.text.unwind_phase2_forced
                0x0800af74        0x8 E:/Tools/Develop/ToolsKits/ARM/arm-gnu-toolchain_v13_3/bin/../lib/gcc/arm-none-eabi/13.3.1/thumb/v7e-m+fp/hard\libgcc.a(unwind-arm.o)
 .ARM.exidx.text.__gnu_Unwind_RaiseException
                0x0800af7c        0x8 E:/Tools/Develop/ToolsKits/ARM/arm-gnu-toolchain_v13_3/bin/../lib/gcc/arm-none-eabi/13.3.1/thumb/v7e-m+fp/hard\libgcc.a(unwind-arm.o)
 .ARM.exidx.text.__gnu_Unwind_ForcedUnwind
                0x0800af84        0x8 E:/Tools/Develop/ToolsKits/ARM/arm-gnu-toolchain_v13_3/bin/../lib/gcc/arm-none-eabi/13.3.1/thumb/v7e-m+fp/hard\libgcc.a(unwind-arm.o)
 .ARM.exidx.text.__gnu_Unwind_Resume
                0x0800af8c        0x8 E:/Tools/Develop/ToolsKits/ARM/arm-gnu-toolchain_v13_3/bin/../lib/gcc/arm-none-eabi/13.3.1/thumb/v7e-m+fp/hard\libgcc.a(unwind-arm.o)
 .ARM.exidx.text.__gnu_Unwind_Resume_or_Rethrow
                0x0800af94        0x8 E:/Tools/Develop/ToolsKits/ARM/arm-gnu-toolchain_v13_3/bin/../lib/gcc/arm-none-eabi/13.3.1/thumb/v7e-m+fp/hard\libgcc.a(unwind-arm.o)
 .ARM.exidx.text._Unwind_VRS_Get
                0x0800af9c        0x0 E:/Tools/Develop/ToolsKits/ARM/arm-gnu-toolchain_v13_3/bin/../lib/gcc/arm-none-eabi/13.3.1/thumb/v7e-m+fp/hard\libgcc.a(unwind-arm.o)
                                  0x8 (size before relaxing)
 .ARM.exidx.text._Unwind_GetGR
                0x0800af9c        0x0 E:/Tools/Develop/ToolsKits/ARM/arm-gnu-toolchain_v13_3/bin/../lib/gcc/arm-none-eabi/13.3.1/thumb/v7e-m+fp/hard\libgcc.a(unwind-arm.o)
                                  0x8 (size before relaxing)
 .ARM.exidx.text._Unwind_VRS_Set
                0x0800af9c        0x0 E:/Tools/Develop/ToolsKits/ARM/arm-gnu-toolchain_v13_3/bin/../lib/gcc/arm-none-eabi/13.3.1/thumb/v7e-m+fp/hard\libgcc.a(unwind-arm.o)
                                  0x8 (size before relaxing)
 .ARM.exidx.text._Unwind_SetGR
                0x0800af9c        0x0 E:/Tools/Develop/ToolsKits/ARM/arm-gnu-toolchain_v13_3/bin/../lib/gcc/arm-none-eabi/13.3.1/thumb/v7e-m+fp/hard\libgcc.a(unwind-arm.o)
                                  0x8 (size before relaxing)
 .ARM.exidx.text.__gnu_Unwind_Backtrace
                0x0800af9c        0x8 E:/Tools/Develop/ToolsKits/ARM/arm-gnu-toolchain_v13_3/bin/../lib/gcc/arm-none-eabi/13.3.1/thumb/v7e-m+fp/hard\libgcc.a(unwind-arm.o)
 .ARM.exidx.text.__gnu_unwind_pr_common
                0x0800afa4        0x8 E:/Tools/Develop/ToolsKits/ARM/arm-gnu-toolchain_v13_3/bin/../lib/gcc/arm-none-eabi/13.3.1/thumb/v7e-m+fp/hard\libgcc.a(unwind-arm.o)
 .ARM.exidx.text.__aeabi_unwind_cpp_pr0
                0x0800afac        0x8 E:/Tools/Develop/ToolsKits/ARM/arm-gnu-toolchain_v13_3/bin/../lib/gcc/arm-none-eabi/13.3.1/thumb/v7e-m+fp/hard\libgcc.a(unwind-arm.o)
 .ARM.exidx.text.__aeabi_unwind_cpp_pr1
                0x0800afb4        0x0 E:/Tools/Develop/ToolsKits/ARM/arm-gnu-toolchain_v13_3/bin/../lib/gcc/arm-none-eabi/13.3.1/thumb/v7e-m+fp/hard\libgcc.a(unwind-arm.o)
                                  0x8 (size before relaxing)
 .ARM.exidx.text.__aeabi_unwind_cpp_pr2
                0x0800afb4        0x0 E:/Tools/Develop/ToolsKits/ARM/arm-gnu-toolchain_v13_3/bin/../lib/gcc/arm-none-eabi/13.3.1/thumb/v7e-m+fp/hard\libgcc.a(unwind-arm.o)
                                  0x8 (size before relaxing)
 .ARM.exidx.text._Unwind_VRS_Pop
                0x0800afb4        0x8 E:/Tools/Develop/ToolsKits/ARM/arm-gnu-toolchain_v13_3/bin/../lib/gcc/arm-none-eabi/13.3.1/thumb/v7e-m+fp/hard\libgcc.a(unwind-arm.o)
 .ARM.exidx.text.next_unwind_byte
                0x0800afbc        0x8 E:/Tools/Develop/ToolsKits/ARM/arm-gnu-toolchain_v13_3/bin/../lib/gcc/arm-none-eabi/13.3.1/thumb/v7e-m+fp/hard\libgcc.a(pr-support.o)
 .ARM.exidx.text.__gnu_unwind_execute
                0x0800afc4       0x10 E:/Tools/Develop/ToolsKits/ARM/arm-gnu-toolchain_v13_3/bin/../lib/gcc/arm-none-eabi/13.3.1/thumb/v7e-m+fp/hard\libgcc.a(pr-support.o)
                                  0x8 (size before relaxing)
                0x0800afd4                        __exidx_end = .
                0x0800afd4                        . = ALIGN (0x4)

.preinit_array  0x0800afd4        0x0
                0x0800afd4                        . = ALIGN (0x4)
                0x0800afd4                        PROVIDE (__preinit_array_start = .)
 *(.preinit_array*)
                0x0800afd4                        PROVIDE (__preinit_array_end = .)
                0x0800afd4                        . = ALIGN (0x4)

.init_array     0x0800afd4        0x8
                0x0800afd4                        . = ALIGN (0x4)
                0x0800afd4                        PROVIDE (__init_array_start = .)
 *(SORT_BY_NAME(.init_array.*))
 .init_array.00000
                0x0800afd4        0x4 E:/Tools/Develop/ToolsKits/ARM/arm-gnu-toolchain_v13_3/bin/../lib/gcc/arm-none-eabi/13.3.1/thumb/v7e-m+fp/hard\libc.a(libc_a-__call_atexit.o)
 *(.init_array*)
 .init_array    0x0800afd8        0x4 E:/Tools/Develop/ToolsKits/ARM/arm-gnu-toolchain_v13_3/bin/../lib/gcc/arm-none-eabi/13.3.1/thumb/v7e-m+fp/hard/crtbegin.o
                0x0800afdc                        PROVIDE (__init_array_end = .)
                0x0800afdc                        . = ALIGN (0x4)

.fini_array     0x0800afdc        0x4
                0x0800afdc                        . = ALIGN (0x4)
                0x0800afdc                        PROVIDE (__fini_array_start = .)
 *(SORT_BY_NAME(.fini_array.*))
 *(.fini_array*)
 .fini_array    0x0800afdc        0x4 E:/Tools/Develop/ToolsKits/ARM/arm-gnu-toolchain_v13_3/bin/../lib/gcc/arm-none-eabi/13.3.1/thumb/v7e-m+fp/hard/crtbegin.o
                0x0800afe0                        PROVIDE (__fini_array_end = .)
                0x0800afe0                        . = ALIGN (0x4)
                0x0800afe0                        _sidata = LOADADDR (.data)

.rel.dyn        0x0800afe0        0x0
 .rel.iplt      0x0800afe0        0x0 E:/Tools/Develop/ToolsKits/ARM/arm-gnu-toolchain_v13_3/bin/../lib/gcc/arm-none-eabi/13.3.1/thumb/v7e-m+fp/hard/crtbegin.o

.data           0x20000000      0x6e4 load address 0x0800afe0
                0x20000000                        . = ALIGN (0x4)
                0x20000000                        _sdata = .
 *(.data)
 *(.data*)
 .data.SystemCoreClock
                0x20000000        0x4 CMakeFiles/Furina.elf.dir/Core/system_stm32f4xx.c.obj
                0x20000000                SystemCoreClock
 .data.uwTickFreq
                0x20000004        0x1 build/lib/liblibdrivers.a(stm32f4xx_hal.c.obj)
                0x20000004                uwTickFreq
 *fill*         0x20000005        0x3 
 .data.uwTickPrio
                0x20000008        0x4 build/lib/liblibdrivers.a(stm32f4xx_hal.c.obj)
                0x20000008                uwTickPrio
 .data.__sglue  0x2000000c        0xc E:/Tools/Develop/ToolsKits/ARM/arm-gnu-toolchain_v13_3/bin/../lib/gcc/arm-none-eabi/13.3.1/thumb/v7e-m+fp/hard\libc.a(libc_a-findfp.o)
                0x2000000c                __sglue
 .data._impure_ptr
                0x20000018        0x4 E:/Tools/Develop/ToolsKits/ARM/arm-gnu-toolchain_v13_3/bin/../lib/gcc/arm-none-eabi/13.3.1/thumb/v7e-m+fp/hard\libc.a(libc_a-impure.o)
                0x20000018                _impure_ptr
 *fill*         0x2000001c        0x4 
 .data._impure_data
                0x20000020      0x140 E:/Tools/Develop/ToolsKits/ARM/arm-gnu-toolchain_v13_3/bin/../lib/gcc/arm-none-eabi/13.3.1/thumb/v7e-m+fp/hard\libc.a(libc_a-impure.o)
                0x20000020                _impure_data
 .data.__atexit_recursive_mutex
                0x20000160        0x4 E:/Tools/Develop/ToolsKits/ARM/arm-gnu-toolchain_v13_3/bin/../lib/gcc/arm-none-eabi/13.3.1/thumb/v7e-m+fp/hard\libc.a(libc_a-__call_atexit.o)
                0x20000160                __atexit_recursive_mutex
 .data.__malloc_sbrk_base
                0x20000164        0x4 E:/Tools/Develop/ToolsKits/ARM/arm-gnu-toolchain_v13_3/bin/../lib/gcc/arm-none-eabi/13.3.1/thumb/v7e-m+fp/hard\libc.a(libc_a-mallocr.o)
                0x20000164                __malloc_sbrk_base
 .data.__malloc_trim_threshold
                0x20000168        0x4 E:/Tools/Develop/ToolsKits/ARM/arm-gnu-toolchain_v13_3/bin/../lib/gcc/arm-none-eabi/13.3.1/thumb/v7e-m+fp/hard\libc.a(libc_a-mallocr.o)
                0x20000168                __malloc_trim_threshold
 *fill*         0x2000016c        0x4 
 .data.__malloc_av_
                0x20000170      0x408 E:/Tools/Develop/ToolsKits/ARM/arm-gnu-toolchain_v13_3/bin/../lib/gcc/arm-none-eabi/13.3.1/thumb/v7e-m+fp/hard\libc.a(libc_a-mallocr.o)
                0x20000170                __malloc_av_
 .data.__global_locale
                0x20000578      0x16c E:/Tools/Develop/ToolsKits/ARM/arm-gnu-toolchain_v13_3/bin/../lib/gcc/arm-none-eabi/13.3.1/thumb/v7e-m+fp/hard\libc.a(libc_a-locale.o)
                0x20000578                __global_locale
 *(.RamFunc)
 *(.RamFunc*)
                0x200006e4                        . = ALIGN (0x4)
                0x200006e4                        _edata = .
                0x0800b6c4                        _siccmram = LOADADDR (.ccmram)

.tm_clone_table
                0x200006e4        0x0 load address 0x0800b6c4
 .tm_clone_table
                0x200006e4        0x0 E:/Tools/Develop/ToolsKits/ARM/arm-gnu-toolchain_v13_3/bin/../lib/gcc/arm-none-eabi/13.3.1/thumb/v7e-m+fp/hard/crtbegin.o
 .tm_clone_table
                0x200006e4        0x0 E:/Tools/Develop/ToolsKits/ARM/arm-gnu-toolchain_v13_3/bin/../lib/gcc/arm-none-eabi/13.3.1/thumb/v7e-m+fp/hard/crtend.o

.igot.plt       0x200006e4        0x0 load address 0x0800b6c4
 .igot.plt      0x200006e4        0x0 E:/Tools/Develop/ToolsKits/ARM/arm-gnu-toolchain_v13_3/bin/../lib/gcc/arm-none-eabi/13.3.1/thumb/v7e-m+fp/hard/crtbegin.o

.ccmram         0x10000000        0x0 load address 0x0800b6c4
                0x10000000                        . = ALIGN (0x4)
                0x10000000                        _sccmram = .
 *(.ccmram)
 *(.ccmram*)
                0x10000000                        . = ALIGN (0x4)
                0x10000000                        _eccmram = .
                0x10000000                        . = ALIGN (0x4)

.bss            0x200006e8      0x5ac
                0x200006e8                        _sbss = .
                0x200006e8                        __bss_start__ = _sbss
 *(.bss)
 *(.bss*)
 .bss.completed.1
                0x200006e8        0x1 E:/Tools/Develop/ToolsKits/ARM/arm-gnu-toolchain_v13_3/bin/../lib/gcc/arm-none-eabi/13.3.1/thumb/v7e-m+fp/hard/crtbegin.o
 *fill*         0x200006e9        0x3 
 .bss.object.0  0x200006ec       0x18 E:/Tools/Develop/ToolsKits/ARM/arm-gnu-toolchain_v13_3/bin/../lib/gcc/arm-none-eabi/13.3.1/thumb/v7e-m+fp/hard/crtbegin.o
 .bss._ZN3Key4signE
                0x20000704        0x1 CMakeFiles/Furina.elf.dir/Application/Base/ISR.cpp.obj
                0x20000704                Key::sign
 .bss._ZN3Key4codeE
                0x20000705        0x1 CMakeFiles/Furina.elf.dir/Application/Base/ISR.cpp.obj
                0x20000705                Key::code
 *fill*         0x20000706        0x2 
 .bss.__sbrk_heap_end
                0x20000708        0x4 CMakeFiles/Furina.elf.dir/Core/sysmem.c.obj
 .bss.htim7     0x2000070c       0x48 build/lib/liblibapp.a(baseInit.cpp.obj)
                0x2000070c                htim7
 .bss.rxBuffer  0x20000754        0x1 build/lib/liblibapp.a(app.cpp.obj)
                0x20000754                rxBuffer
 *fill*         0x20000755        0x3 
 .bss.htim13    0x20000758       0x48 build/lib/liblibbsp.a(CPU_RunTime.c.obj)
                0x20000758                htim13
 .bss.CPU_RunTime
                0x200007a0        0x4 build/lib/liblibbsp.a(CPU_RunTime.c.obj)
                0x200007a0                CPU_RunTime
 *fill*         0x200007a4        0x4 
 .bss.hadc1     0x200007a8       0x48 build/lib/liblibbsp.a(adc.c.obj)
                0x200007a8                hadc1
 .bss.hdma_memtomem_dma2_stream6
                0x200007f0       0x60 build/lib/liblibbsp.a(fsmc.c.obj)
                0x200007f0                hdma_memtomem_dma2_stream6
 .bss.hsram1    0x20000850       0x50 build/lib/liblibbsp.a(fsmc.c.obj)
                0x20000850                hsram1
 .bss.htim6     0x200008a0       0x48 build/lib/liblibbsp.a(timer.c.obj)
                0x200008a0                htim6
 .bss.htim2     0x200008e8       0x48 build/lib/liblibbsp.a(timer.c.obj)
                0x200008e8                htim2
 .bss.huart1    0x20000930       0x48 build/lib/liblibbsp.a(usart.c.obj)
                0x20000930                huart1
 .bss.uwTick    0x20000978        0x4 build/lib/liblibdrivers.a(stm32f4xx_hal.c.obj)
                0x20000978                uwTick
 .bss._ZN3Key5stateE
                0x2000097c        0x4 build/lib/liblibmodule.a(key.cpp.obj)
                0x2000097c                Key::state
 .bss.__sf      0x20000980      0x138 E:/Tools/Develop/ToolsKits/ARM/arm-gnu-toolchain_v13_3/bin/../lib/gcc/arm-none-eabi/13.3.1/thumb/v7e-m+fp/hard\libc.a(libc_a-findfp.o)
                0x20000980                __sf
 .bss.__stdio_exit_handler
                0x20000ab8        0x4 E:/Tools/Develop/ToolsKits/ARM/arm-gnu-toolchain_v13_3/bin/../lib/gcc/arm-none-eabi/13.3.1/thumb/v7e-m+fp/hard\libc.a(libc_a-findfp.o)
                0x20000ab8                __stdio_exit_handler
 .bss.errno     0x20000abc        0x4 E:/Tools/Develop/ToolsKits/ARM/arm-gnu-toolchain_v13_3/bin/../lib/gcc/arm-none-eabi/13.3.1/thumb/v7e-m+fp/hard\libc.a(libc_a-reent.o)
                0x20000abc                errno
 .bss.__lock___malloc_recursive_mutex
                0x20000ac0        0x1 E:/Tools/Develop/ToolsKits/ARM/arm-gnu-toolchain_v13_3/bin/../lib/gcc/arm-none-eabi/13.3.1/thumb/v7e-m+fp/hard\libc.a(libc_a-lock.o)
                0x20000ac0                __lock___malloc_recursive_mutex
 *fill*         0x20000ac1        0x3 
 .bss.__lock___atexit_recursive_mutex
                0x20000ac4        0x1 E:/Tools/Develop/ToolsKits/ARM/arm-gnu-toolchain_v13_3/bin/../lib/gcc/arm-none-eabi/13.3.1/thumb/v7e-m+fp/hard\libc.a(libc_a-lock.o)
                0x20000ac4                __lock___atexit_recursive_mutex
 *fill*         0x20000ac5        0x3 
 .bss.__lock___sfp_recursive_mutex
                0x20000ac8        0x1 E:/Tools/Develop/ToolsKits/ARM/arm-gnu-toolchain_v13_3/bin/../lib/gcc/arm-none-eabi/13.3.1/thumb/v7e-m+fp/hard\libc.a(libc_a-lock.o)
                0x20000ac8                __lock___sfp_recursive_mutex
 *fill*         0x20000ac9        0x3 
 .bss.__atexit  0x20000acc        0x4 E:/Tools/Develop/ToolsKits/ARM/arm-gnu-toolchain_v13_3/bin/../lib/gcc/arm-none-eabi/13.3.1/thumb/v7e-m+fp/hard\libc.a(libc_a-__call_atexit.o)
                0x20000acc                __atexit
 .bss.__malloc_current_mallinfo
                0x20000ad0       0x28 E:/Tools/Develop/ToolsKits/ARM/arm-gnu-toolchain_v13_3/bin/../lib/gcc/arm-none-eabi/13.3.1/thumb/v7e-m+fp/hard\libc.a(libc_a-mallocr.o)
                0x20000ad0                __malloc_current_mallinfo
 .bss.__malloc_max_total_mem
                0x20000af8        0x4 E:/Tools/Develop/ToolsKits/ARM/arm-gnu-toolchain_v13_3/bin/../lib/gcc/arm-none-eabi/13.3.1/thumb/v7e-m+fp/hard\libc.a(libc_a-mallocr.o)
                0x20000af8                __malloc_max_total_mem
 .bss.__malloc_max_sbrked_mem
                0x20000afc        0x4 E:/Tools/Develop/ToolsKits/ARM/arm-gnu-toolchain_v13_3/bin/../lib/gcc/arm-none-eabi/13.3.1/thumb/v7e-m+fp/hard\libc.a(libc_a-mallocr.o)
                0x20000afc                __malloc_max_sbrked_mem
 .bss.__malloc_top_pad
                0x20000b00        0x4 E:/Tools/Develop/ToolsKits/ARM/arm-gnu-toolchain_v13_3/bin/../lib/gcc/arm-none-eabi/13.3.1/thumb/v7e-m+fp/hard\libc.a(libc_a-mallocr.o)
                0x20000b00                __malloc_top_pad
 .bss.__atexit0
                0x20000b04      0x190 E:/Tools/Develop/ToolsKits/ARM/arm-gnu-toolchain_v13_3/bin/../lib/gcc/arm-none-eabi/13.3.1/thumb/v7e-m+fp/hard\libc.a(libc_a-__atexit.o)
                0x20000b04                __atexit0
 *(COMMON)
                0x20000c94                        . = ALIGN (0x4)
                0x20000c94                        _ebss = .
                0x20000c94                        __bss_end__ = _ebss

._user_heap_stack
                0x20000c94     0x1404
                0x20000c98                        . = ALIGN (0x8)
 *fill*         0x20000c94        0x4 
                [!provide]                        PROVIDE (end = .)
                0x20000c98                        PROVIDE (_end = .)
                0x20001098                        . = (. + _Min_Heap_Size)
 *fill*         0x20000c98      0x400 
                0x20002098                        . = (. + _Min_Stack_Size)
 *fill*         0x20001098     0x1000 
                0x20002098                        . = ALIGN (0x8)

/DISCARD/
 libc.a(*)
 libm.a(*)
 libgcc.a(*)

.ARM.attributes
                0x00000000       0x30
 *(.ARM.attributes)
 .ARM.attributes
                0x00000000       0x22 E:/Tools/Develop/ToolsKits/ARM/arm-gnu-toolchain_v13_3/bin/../lib/gcc/arm-none-eabi/13.3.1/thumb/v7e-m+fp/hard/crti.o
 .ARM.attributes
                0x00000022       0x34 E:/Tools/Develop/ToolsKits/ARM/arm-gnu-toolchain_v13_3/bin/../lib/gcc/arm-none-eabi/13.3.1/thumb/v7e-m+fp/hard/crtbegin.o
 .ARM.attributes
                0x00000056       0x30 CMakeFiles/Furina.elf.dir/Application/Base/ISR.cpp.obj
 .ARM.attributes
                0x00000086       0x21 CMakeFiles/Furina.elf.dir/Core/startup_stm32f407vetx.s.obj
 .ARM.attributes
                0x000000a7       0x30 CMakeFiles/Furina.elf.dir/Core/stm32f4xx_it.c.obj
 .ARM.attributes
                0x000000d7       0x30 CMakeFiles/Furina.elf.dir/Core/syscalls.c.obj
 .ARM.attributes
                0x00000107       0x30 CMakeFiles/Furina.elf.dir/Core/sysmem.c.obj
 .ARM.attributes
                0x00000137       0x30 CMakeFiles/Furina.elf.dir/Core/system_stm32f4xx.c.obj
 .ARM.attributes
                0x00000167       0x30 build/lib/liblibapp.a(baseInit.cpp.obj)
 .ARM.attributes
                0x00000197       0x30 build/lib/liblibapp.a(main.cpp.obj)
 .ARM.attributes
                0x000001c7       0x30 build/lib/liblibapp.a(app.cpp.obj)
 .ARM.attributes
                0x000001f7       0x30 build/lib/liblibbsp.a(CPU_RunTime.c.obj)
 .ARM.attributes
                0x00000227       0x30 build/lib/liblibbsp.a(adc.c.obj)
 .ARM.attributes
                0x00000257       0x30 build/lib/liblibbsp.a(fsmc.c.obj)
 .ARM.attributes
                0x00000287       0x30 build/lib/liblibbsp.a(key_exit.c.obj)
 .ARM.attributes
                0x000002b7       0x30 build/lib/liblibbsp.a(lcd.c.obj)
 .ARM.attributes
                0x000002e7       0x30 build/lib/liblibbsp.a(timer.c.obj)
 .ARM.attributes
                0x00000317       0x30 build/lib/liblibbsp.a(usart.c.obj)
 .ARM.attributes
                0x00000347       0x30 build/lib/liblibdrivers.a(stm32f4xx_hal.c.obj)
 .ARM.attributes
                0x00000377       0x30 build/lib/liblibdrivers.a(stm32f4xx_hal_adc.c.obj)
 .ARM.attributes
                0x000003a7       0x30 build/lib/liblibdrivers.a(stm32f4xx_hal_adc_ex.c.obj)
 .ARM.attributes
                0x000003d7       0x30 build/lib/liblibdrivers.a(stm32f4xx_hal_cortex.c.obj)
 .ARM.attributes
                0x00000407       0x30 build/lib/liblibdrivers.a(stm32f4xx_hal_dma.c.obj)
 .ARM.attributes
                0x00000437       0x30 build/lib/liblibdrivers.a(stm32f4xx_hal_gpio.c.obj)
 .ARM.attributes
                0x00000467       0x30 build/lib/liblibdrivers.a(stm32f4xx_hal_rcc.c.obj)
 .ARM.attributes
                0x00000497       0x30 build/lib/liblibdrivers.a(stm32f4xx_hal_sram.c.obj)
 .ARM.attributes
                0x000004c7       0x30 build/lib/liblibdrivers.a(stm32f4xx_hal_tim.c.obj)
 .ARM.attributes
                0x000004f7       0x30 build/lib/liblibdrivers.a(stm32f4xx_hal_tim_ex.c.obj)
 .ARM.attributes
                0x00000527       0x30 build/lib/liblibdrivers.a(stm32f4xx_hal_uart.c.obj)
 .ARM.attributes
                0x00000557       0x30 build/lib/liblibdrivers.a(stm32f4xx_ll_fsmc.c.obj)
 .ARM.attributes
                0x00000587       0x30 build/lib/liblibmodule.a(key.cpp.obj)
 .ARM.attributes
                0x000005b7       0x22 E:/Tools/Develop/ToolsKits/ARM/arm-gnu-toolchain_v13_3/bin/../lib/gcc/arm-none-eabi/13.3.1/thumb/v7e-m+fp/hard\libgcc.a(_arm_addsubdf3.o)
 .ARM.attributes
                0x000005d9       0x22 E:/Tools/Develop/ToolsKits/ARM/arm-gnu-toolchain_v13_3/bin/../lib/gcc/arm-none-eabi/13.3.1/thumb/v7e-m+fp/hard\libgcc.a(_aeabi_uldivmod.o)
 .ARM.attributes
                0x000005fb       0x34 E:/Tools/Develop/ToolsKits/ARM/arm-gnu-toolchain_v13_3/bin/../lib/gcc/arm-none-eabi/13.3.1/thumb/v7e-m+fp/hard\libgcc.a(_udivmoddi4.o)
 .ARM.attributes
                0x0000062f       0x34 E:/Tools/Develop/ToolsKits/ARM/arm-gnu-toolchain_v13_3/bin/../lib/gcc/arm-none-eabi/13.3.1/thumb/v7e-m+fp/hard\libgcc.a(unwind-arm.o)
 .ARM.attributes
                0x00000663       0x22 E:/Tools/Develop/ToolsKits/ARM/arm-gnu-toolchain_v13_3/bin/../lib/gcc/arm-none-eabi/13.3.1/thumb/v7e-m+fp/hard\libgcc.a(libunwind.o)
 .ARM.attributes
                0x00000685       0x34 E:/Tools/Develop/ToolsKits/ARM/arm-gnu-toolchain_v13_3/bin/../lib/gcc/arm-none-eabi/13.3.1/thumb/v7e-m+fp/hard\libgcc.a(pr-support.o)
 .ARM.attributes
                0x000006b9       0x22 E:/Tools/Develop/ToolsKits/ARM/arm-gnu-toolchain_v13_3/bin/../lib/gcc/arm-none-eabi/13.3.1/thumb/v7e-m+fp/hard\libgcc.a(_dvmd_tls.o)
 .ARM.attributes
                0x000006db       0x34 E:/Tools/Develop/ToolsKits/ARM/arm-gnu-toolchain_v13_3/bin/../lib/gcc/arm-none-eabi/13.3.1/thumb/v7e-m+fp/hard\libc.a(libc_a-abort.o)
 .ARM.attributes
                0x0000070f       0x34 E:/Tools/Develop/ToolsKits/ARM/arm-gnu-toolchain_v13_3/bin/../lib/gcc/arm-none-eabi/13.3.1/thumb/v7e-m+fp/hard\libc.a(libc_a-findfp.o)
 .ARM.attributes
                0x00000743       0x34 E:/Tools/Develop/ToolsKits/ARM/arm-gnu-toolchain_v13_3/bin/../lib/gcc/arm-none-eabi/13.3.1/thumb/v7e-m+fp/hard\libc.a(libc_a-fwalk.o)
 .ARM.attributes
                0x00000777       0x34 E:/Tools/Develop/ToolsKits/ARM/arm-gnu-toolchain_v13_3/bin/../lib/gcc/arm-none-eabi/13.3.1/thumb/v7e-m+fp/hard\libc.a(libc_a-printf.o)
 .ARM.attributes
                0x000007ab       0x34 E:/Tools/Develop/ToolsKits/ARM/arm-gnu-toolchain_v13_3/bin/../lib/gcc/arm-none-eabi/13.3.1/thumb/v7e-m+fp/hard\libc.a(libc_a-stdio.o)
 .ARM.attributes
                0x000007df       0x34 E:/Tools/Develop/ToolsKits/ARM/arm-gnu-toolchain_v13_3/bin/../lib/gcc/arm-none-eabi/13.3.1/thumb/v7e-m+fp/hard\libc.a(libc_a-memset.o)
 .ARM.attributes
                0x00000813       0x34 E:/Tools/Develop/ToolsKits/ARM/arm-gnu-toolchain_v13_3/bin/../lib/gcc/arm-none-eabi/13.3.1/thumb/v7e-m+fp/hard\libc.a(libc_a-signal.o)
 .ARM.attributes
                0x00000847       0x34 E:/Tools/Develop/ToolsKits/ARM/arm-gnu-toolchain_v13_3/bin/../lib/gcc/arm-none-eabi/13.3.1/thumb/v7e-m+fp/hard\libc.a(libc_a-closer.o)
 .ARM.attributes
                0x0000087b       0x34 E:/Tools/Develop/ToolsKits/ARM/arm-gnu-toolchain_v13_3/bin/../lib/gcc/arm-none-eabi/13.3.1/thumb/v7e-m+fp/hard\libc.a(libc_a-reent.o)
 .ARM.attributes
                0x000008af       0x34 E:/Tools/Develop/ToolsKits/ARM/arm-gnu-toolchain_v13_3/bin/../lib/gcc/arm-none-eabi/13.3.1/thumb/v7e-m+fp/hard\libc.a(libc_a-impure.o)
 .ARM.attributes
                0x000008e3       0x34 E:/Tools/Develop/ToolsKits/ARM/arm-gnu-toolchain_v13_3/bin/../lib/gcc/arm-none-eabi/13.3.1/thumb/v7e-m+fp/hard\libc.a(libc_a-lseekr.o)
 .ARM.attributes
                0x00000917       0x34 E:/Tools/Develop/ToolsKits/ARM/arm-gnu-toolchain_v13_3/bin/../lib/gcc/arm-none-eabi/13.3.1/thumb/v7e-m+fp/hard\libc.a(libc_a-readr.o)
 .ARM.attributes
                0x0000094b       0x34 E:/Tools/Develop/ToolsKits/ARM/arm-gnu-toolchain_v13_3/bin/../lib/gcc/arm-none-eabi/13.3.1/thumb/v7e-m+fp/hard\libc.a(libc_a-signalr.o)
 .ARM.attributes
                0x0000097f       0x34 E:/Tools/Develop/ToolsKits/ARM/arm-gnu-toolchain_v13_3/bin/../lib/gcc/arm-none-eabi/13.3.1/thumb/v7e-m+fp/hard\libc.a(libc_a-writer.o)
 .ARM.attributes
                0x000009b3       0x34 E:/Tools/Develop/ToolsKits/ARM/arm-gnu-toolchain_v13_3/bin/../lib/gcc/arm-none-eabi/13.3.1/thumb/v7e-m+fp/hard\libc.a(libc_a-errno.o)
 .ARM.attributes
                0x000009e7       0x34 E:/Tools/Develop/ToolsKits/ARM/arm-gnu-toolchain_v13_3/bin/../lib/gcc/arm-none-eabi/13.3.1/thumb/v7e-m+fp/hard\libc.a(libc_a-init.o)
 .ARM.attributes
                0x00000a1b       0x34 E:/Tools/Develop/ToolsKits/ARM/arm-gnu-toolchain_v13_3/bin/../lib/gcc/arm-none-eabi/13.3.1/thumb/v7e-m+fp/hard\libc.a(libc_a-lock.o)
 .ARM.attributes
                0x00000a4f       0x20 E:/Tools/Develop/ToolsKits/ARM/arm-gnu-toolchain_v13_3/bin/../lib/gcc/arm-none-eabi/13.3.1/thumb/v7e-m+fp/hard\libc.a(libc_a-memcpy.o)
 .ARM.attributes
                0x00000a6f       0x34 E:/Tools/Develop/ToolsKits/ARM/arm-gnu-toolchain_v13_3/bin/../lib/gcc/arm-none-eabi/13.3.1/thumb/v7e-m+fp/hard\libc.a(libc_a-__call_atexit.o)
 .ARM.attributes
                0x00000aa3       0x34 E:/Tools/Develop/ToolsKits/ARM/arm-gnu-toolchain_v13_3/bin/../lib/gcc/arm-none-eabi/13.3.1/thumb/v7e-m+fp/hard\libc.a(libc_a-atexit.o)
 .ARM.attributes
                0x00000ad7       0x34 E:/Tools/Develop/ToolsKits/ARM/arm-gnu-toolchain_v13_3/bin/../lib/gcc/arm-none-eabi/13.3.1/thumb/v7e-m+fp/hard\libc.a(libc_a-freer.o)
 .ARM.attributes
                0x00000b0b       0x34 E:/Tools/Develop/ToolsKits/ARM/arm-gnu-toolchain_v13_3/bin/../lib/gcc/arm-none-eabi/13.3.1/thumb/v7e-m+fp/hard\libc.a(libc_a-mallocr.o)
 .ARM.attributes
                0x00000b3f       0x34 E:/Tools/Develop/ToolsKits/ARM/arm-gnu-toolchain_v13_3/bin/../lib/gcc/arm-none-eabi/13.3.1/thumb/v7e-m+fp/hard\libc.a(libc_a-mlock.o)
 .ARM.attributes
                0x00000b73       0x34 E:/Tools/Develop/ToolsKits/ARM/arm-gnu-toolchain_v13_3/bin/../lib/gcc/arm-none-eabi/13.3.1/thumb/v7e-m+fp/hard\libc.a(libc_a-vfprintf.o)
 .ARM.attributes
                0x00000ba7       0x34 E:/Tools/Develop/ToolsKits/ARM/arm-gnu-toolchain_v13_3/bin/../lib/gcc/arm-none-eabi/13.3.1/thumb/v7e-m+fp/hard\libc.a(libc_a-sprint_r.o)
 .ARM.attributes
                0x00000bdb       0x34 E:/Tools/Develop/ToolsKits/ARM/arm-gnu-toolchain_v13_3/bin/../lib/gcc/arm-none-eabi/13.3.1/thumb/v7e-m+fp/hard\libc.a(libc_a-fclose.o)
 .ARM.attributes
                0x00000c0f       0x34 E:/Tools/Develop/ToolsKits/ARM/arm-gnu-toolchain_v13_3/bin/../lib/gcc/arm-none-eabi/13.3.1/thumb/v7e-m+fp/hard\libc.a(libc_a-fflush.o)
 .ARM.attributes
                0x00000c43       0x34 E:/Tools/Develop/ToolsKits/ARM/arm-gnu-toolchain_v13_3/bin/../lib/gcc/arm-none-eabi/13.3.1/thumb/v7e-m+fp/hard\libc.a(libc_a-fvwrite.o)
 .ARM.attributes
                0x00000c77       0x34 E:/Tools/Develop/ToolsKits/ARM/arm-gnu-toolchain_v13_3/bin/../lib/gcc/arm-none-eabi/13.3.1/thumb/v7e-m+fp/hard\libc.a(libc_a-wsetup.o)
 .ARM.attributes
                0x00000cab       0x34 E:/Tools/Develop/ToolsKits/ARM/arm-gnu-toolchain_v13_3/bin/../lib/gcc/arm-none-eabi/13.3.1/thumb/v7e-m+fp/hard\libc.a(libc_a-memmove.o)
 .ARM.attributes
                0x00000cdf       0x34 E:/Tools/Develop/ToolsKits/ARM/arm-gnu-toolchain_v13_3/bin/../lib/gcc/arm-none-eabi/13.3.1/thumb/v7e-m+fp/hard\libc.a(libc_a-strncpy.o)
 .ARM.attributes
                0x00000d13       0x34 E:/Tools/Develop/ToolsKits/ARM/arm-gnu-toolchain_v13_3/bin/../lib/gcc/arm-none-eabi/13.3.1/thumb/v7e-m+fp/hard\libc.a(libc_a-locale.o)
 .ARM.attributes
                0x00000d47       0x34 E:/Tools/Develop/ToolsKits/ARM/arm-gnu-toolchain_v13_3/bin/../lib/gcc/arm-none-eabi/13.3.1/thumb/v7e-m+fp/hard\libc.a(libc_a-localeconv.o)
 .ARM.attributes
                0x00000d7b       0x34 E:/Tools/Develop/ToolsKits/ARM/arm-gnu-toolchain_v13_3/bin/../lib/gcc/arm-none-eabi/13.3.1/thumb/v7e-m+fp/hard\libc.a(libc_a-sbrkr.o)
 .ARM.attributes
                0x00000daf       0x34 E:/Tools/Develop/ToolsKits/ARM/arm-gnu-toolchain_v13_3/bin/../lib/gcc/arm-none-eabi/13.3.1/thumb/v7e-m+fp/hard\libc.a(libc_a-fini.o)
 .ARM.attributes
                0x00000de3       0x34 E:/Tools/Develop/ToolsKits/ARM/arm-gnu-toolchain_v13_3/bin/../lib/gcc/arm-none-eabi/13.3.1/thumb/v7e-m+fp/hard\libc.a(libc_a-sysconf.o)
 .ARM.attributes
                0x00000e17       0x1c E:/Tools/Develop/ToolsKits/ARM/arm-gnu-toolchain_v13_3/bin/../lib/gcc/arm-none-eabi/13.3.1/thumb/v7e-m+fp/hard\libc.a(libc_a-memchr.o)
 .ARM.attributes
                0x00000e33       0x1c E:/Tools/Develop/ToolsKits/ARM/arm-gnu-toolchain_v13_3/bin/../lib/gcc/arm-none-eabi/13.3.1/thumb/v7e-m+fp/hard\libc.a(libc_a-strlen.o)
 .ARM.attributes
                0x00000e4f       0x34 E:/Tools/Develop/ToolsKits/ARM/arm-gnu-toolchain_v13_3/bin/../lib/gcc/arm-none-eabi/13.3.1/thumb/v7e-m+fp/hard\libc.a(libm_a-s_frexp.o)
 .ARM.attributes
                0x00000e83       0x34 E:/Tools/Develop/ToolsKits/ARM/arm-gnu-toolchain_v13_3/bin/../lib/gcc/arm-none-eabi/13.3.1/thumb/v7e-m+fp/hard\libc.a(libc_a-__atexit.o)
 .ARM.attributes
                0x00000eb7       0x34 E:/Tools/Develop/ToolsKits/ARM/arm-gnu-toolchain_v13_3/bin/../lib/gcc/arm-none-eabi/13.3.1/thumb/v7e-m+fp/hard\libc.a(libc_a-dtoa.o)
 .ARM.attributes
                0x00000eeb       0x34 E:/Tools/Develop/ToolsKits/ARM/arm-gnu-toolchain_v13_3/bin/../lib/gcc/arm-none-eabi/13.3.1/thumb/v7e-m+fp/hard\libc.a(libc_a-mbtowc_r.o)
 .ARM.attributes
                0x00000f1f       0x34 E:/Tools/Develop/ToolsKits/ARM/arm-gnu-toolchain_v13_3/bin/../lib/gcc/arm-none-eabi/13.3.1/thumb/v7e-m+fp/hard\libc.a(libc_a-mprec.o)
 .ARM.attributes
                0x00000f53       0x34 E:/Tools/Develop/ToolsKits/ARM/arm-gnu-toolchain_v13_3/bin/../lib/gcc/arm-none-eabi/13.3.1/thumb/v7e-m+fp/hard\libc.a(libc_a-reallocr.o)
 .ARM.attributes
                0x00000f87       0x34 E:/Tools/Develop/ToolsKits/ARM/arm-gnu-toolchain_v13_3/bin/../lib/gcc/arm-none-eabi/13.3.1/thumb/v7e-m+fp/hard\libc.a(libc_a-wctomb_r.o)
 .ARM.attributes
                0x00000fbb       0x34 E:/Tools/Develop/ToolsKits/ARM/arm-gnu-toolchain_v13_3/bin/../lib/gcc/arm-none-eabi/13.3.1/thumb/v7e-m+fp/hard\libc.a(libc_a-wcrtomb.o)
 .ARM.attributes
                0x00000fef       0x34 E:/Tools/Develop/ToolsKits/ARM/arm-gnu-toolchain_v13_3/bin/../lib/gcc/arm-none-eabi/13.3.1/thumb/v7e-m+fp/hard\libc.a(libc_a-wcsrtombs.o)
 .ARM.attributes
                0x00001023       0x34 E:/Tools/Develop/ToolsKits/ARM/arm-gnu-toolchain_v13_3/bin/../lib/gcc/arm-none-eabi/13.3.1/thumb/v7e-m+fp/hard\libc.a(libc_a-ctype_.o)
 .ARM.attributes
                0x00001057       0x34 E:/Tools/Develop/ToolsKits/ARM/arm-gnu-toolchain_v13_3/bin/../lib/gcc/arm-none-eabi/13.3.1/thumb/v7e-m+fp/hard\libc.a(libc_a-makebuf.o)
 .ARM.attributes
                0x0000108b       0x34 E:/Tools/Develop/ToolsKits/ARM/arm-gnu-toolchain_v13_3/bin/../lib/gcc/arm-none-eabi/13.3.1/thumb/v7e-m+fp/hard\libc.a(libc_a-fstatr.o)
 .ARM.attributes
                0x000010bf       0x34 E:/Tools/Develop/ToolsKits/ARM/arm-gnu-toolchain_v13_3/bin/../lib/gcc/arm-none-eabi/13.3.1/thumb/v7e-m+fp/hard\libc.a(libc_a-isattyr.o)
 .ARM.attributes
                0x000010f3       0x34 E:/Tools/Develop/ToolsKits/ARM/arm-gnu-toolchain_v13_3/bin/../lib/gcc/arm-none-eabi/13.3.1/thumb/v7e-m+fp/hard\libc.a(libc_a-assert.o)
 .ARM.attributes
                0x00001127       0x34 E:/Tools/Develop/ToolsKits/ARM/arm-gnu-toolchain_v13_3/bin/../lib/gcc/arm-none-eabi/13.3.1/thumb/v7e-m+fp/hard\libc.a(libc_a-callocr.o)
 .ARM.attributes
                0x0000115b       0x34 E:/Tools/Develop/ToolsKits/ARM/arm-gnu-toolchain_v13_3/bin/../lib/gcc/arm-none-eabi/13.3.1/thumb/v7e-m+fp/hard\libc.a(libc_a-wcsnrtombs.o)
 .ARM.attributes
                0x0000118f       0x34 E:/Tools/Develop/ToolsKits/ARM/arm-gnu-toolchain_v13_3/bin/../lib/gcc/arm-none-eabi/13.3.1/thumb/v7e-m+fp/hard\libc.a(libc_a-fiprintf.o)
 .ARM.attributes
                0x000011c3       0x34 E:/Tools/Develop/ToolsKits/ARM/arm-gnu-toolchain_v13_3/bin/../lib/gcc/arm-none-eabi/13.3.1/thumb/v7e-m+fp/hard\libc.a(libc_a-vfiprintf.o)
 .ARM.attributes
                0x000011f7       0x22 E:/Tools/Develop/ToolsKits/ARM/arm-gnu-toolchain_v13_3/bin/../lib/gcc/arm-none-eabi/13.3.1/thumb/v7e-m+fp/hard\libgcc.a(_arm_muldivdf3.o)
 .ARM.attributes
                0x00001219       0x22 E:/Tools/Develop/ToolsKits/ARM/arm-gnu-toolchain_v13_3/bin/../lib/gcc/arm-none-eabi/13.3.1/thumb/v7e-m+fp/hard\libgcc.a(_arm_cmpdf2.o)
 .ARM.attributes
                0x0000123b       0x22 E:/Tools/Develop/ToolsKits/ARM/arm-gnu-toolchain_v13_3/bin/../lib/gcc/arm-none-eabi/13.3.1/thumb/v7e-m+fp/hard\libgcc.a(_arm_unorddf2.o)
 .ARM.attributes
                0x0000125d       0x22 E:/Tools/Develop/ToolsKits/ARM/arm-gnu-toolchain_v13_3/bin/../lib/gcc/arm-none-eabi/13.3.1/thumb/v7e-m+fp/hard\libgcc.a(_arm_fixdfsi.o)
 .ARM.attributes
                0x0000127f       0x34 E:/Tools/Develop/ToolsKits/ARM/arm-gnu-toolchain_v13_3/bin/../lib/gcc/arm-none-eabi/13.3.1/thumb/v7e-m+fp/hard/crtend.o
 .ARM.attributes
                0x000012b3       0x22 E:/Tools/Develop/ToolsKits/ARM/arm-gnu-toolchain_v13_3/bin/../lib/gcc/arm-none-eabi/13.3.1/thumb/v7e-m+fp/hard/crtn.o
OUTPUT(build\bin\Furina.elf elf32-littlearm)
LOAD linker stubs
LOAD E:/Tools/Develop/ToolsKits/ARM/arm-gnu-toolchain_v13_3/bin/../lib/gcc/arm-none-eabi/13.3.1/thumb/v7e-m+fp/hard\libc.a
LOAD E:/Tools/Develop/ToolsKits/ARM/arm-gnu-toolchain_v13_3/bin/../lib/gcc/arm-none-eabi/13.3.1/thumb/v7e-m+fp/hard\libm.a
LOAD E:/Tools/Develop/ToolsKits/ARM/arm-gnu-toolchain_v13_3/bin/../lib/gcc/arm-none-eabi/13.3.1/thumb/v7e-m+fp/hard\libgcc.a

.debug_info     0x00000000    0x1c112
 .debug_info    0x00000000      0xdfc CMakeFiles/Furina.elf.dir/Application/Base/ISR.cpp.obj
 .debug_info    0x00000dfc       0x30 CMakeFiles/Furina.elf.dir/Core/startup_stm32f407vetx.s.obj
 .debug_info    0x00000e2c      0x5ee CMakeFiles/Furina.elf.dir/Core/stm32f4xx_it.c.obj
 .debug_info    0x0000141a      0x7a1 CMakeFiles/Furina.elf.dir/Core/syscalls.c.obj
 .debug_info    0x00001bbb      0x182 CMakeFiles/Furina.elf.dir/Core/sysmem.c.obj
 .debug_info    0x00001d3d      0x527 CMakeFiles/Furina.elf.dir/Core/system_stm32f4xx.c.obj
 .debug_info    0x00002264     0x113b build/lib/liblibapp.a(baseInit.cpp.obj)
 .debug_info    0x0000339f      0x471 build/lib/liblibapp.a(main.cpp.obj)
 .debug_info    0x00003810     0x1c49 build/lib/liblibapp.a(app.cpp.obj)
 .debug_info    0x00005459      0xbdc build/lib/liblibbsp.a(CPU_RunTime.c.obj)
 .debug_info    0x00006035      0xc41 build/lib/liblibbsp.a(adc.c.obj)
 .debug_info    0x00006c76      0xd4a build/lib/liblibbsp.a(fsmc.c.obj)
 .debug_info    0x000079c0      0x617 build/lib/liblibbsp.a(key_exit.c.obj)
 .debug_info    0x00007fd7      0x513 build/lib/liblibbsp.a(lcd.c.obj)
 .debug_info    0x000084ea      0xd0e build/lib/liblibbsp.a(timer.c.obj)
 .debug_info    0x000091f8      0xc59 build/lib/liblibbsp.a(usart.c.obj)
 .debug_info    0x00009e51      0xa18 build/lib/liblibdrivers.a(stm32f4xx_hal.c.obj)
 .debug_info    0x0000a869      0xe64 build/lib/liblibdrivers.a(stm32f4xx_hal_adc.c.obj)
 .debug_info    0x0000b6cd      0xc6a build/lib/liblibdrivers.a(stm32f4xx_hal_adc_ex.c.obj)
 .debug_info    0x0000c337     0x101f build/lib/liblibdrivers.a(stm32f4xx_hal_cortex.c.obj)
 .debug_info    0x0000d356      0xb2a build/lib/liblibdrivers.a(stm32f4xx_hal_dma.c.obj)
 .debug_info    0x0000de80      0x708 build/lib/liblibdrivers.a(stm32f4xx_hal_gpio.c.obj)
 .debug_info    0x0000e588      0xacd build/lib/liblibdrivers.a(stm32f4xx_hal_rcc.c.obj)
 .debug_info    0x0000f055      0xf6f build/lib/liblibdrivers.a(stm32f4xx_hal_sram.c.obj)
 .debug_info    0x0000ffc4     0x4e7b build/lib/liblibdrivers.a(stm32f4xx_hal_tim.c.obj)
 .debug_info    0x00014e3f     0x1c12 build/lib/liblibdrivers.a(stm32f4xx_hal_tim_ex.c.obj)
 .debug_info    0x00016a51     0x47b5 build/lib/liblibdrivers.a(stm32f4xx_hal_uart.c.obj)
 .debug_info    0x0001b206      0xa4c build/lib/liblibdrivers.a(stm32f4xx_ll_fsmc.c.obj)
 .debug_info    0x0001bc52      0x4c0 build/lib/liblibmodule.a(key.cpp.obj)

.debug_abbrev   0x00000000     0x4223
 .debug_abbrev  0x00000000      0x2be CMakeFiles/Furina.elf.dir/Application/Base/ISR.cpp.obj
 .debug_abbrev  0x000002be       0x24 CMakeFiles/Furina.elf.dir/Core/startup_stm32f407vetx.s.obj
 .debug_abbrev  0x000002e2       0x2e CMakeFiles/Furina.elf.dir/Core/stm32f4xx_it.c.obj
 .debug_abbrev  0x00000310      0x204 CMakeFiles/Furina.elf.dir/Core/syscalls.c.obj
 .debug_abbrev  0x00000514       0xda CMakeFiles/Furina.elf.dir/Core/sysmem.c.obj
 .debug_abbrev  0x000005ee      0x11e CMakeFiles/Furina.elf.dir/Core/system_stm32f4xx.c.obj
 .debug_abbrev  0x0000070c      0x330 build/lib/liblibapp.a(baseInit.cpp.obj)
 .debug_abbrev  0x00000a3c      0x127 build/lib/liblibapp.a(main.cpp.obj)
 .debug_abbrev  0x00000b63      0x3e3 build/lib/liblibapp.a(app.cpp.obj)
 .debug_abbrev  0x00000f46      0x1e3 build/lib/liblibbsp.a(CPU_RunTime.c.obj)
 .debug_abbrev  0x00001129      0x202 build/lib/liblibbsp.a(adc.c.obj)
 .debug_abbrev  0x0000132b      0x23a build/lib/liblibbsp.a(fsmc.c.obj)
 .debug_abbrev  0x00001565      0x17f build/lib/liblibbsp.a(key_exit.c.obj)
 .debug_abbrev  0x000016e4      0x1f1 build/lib/liblibbsp.a(lcd.c.obj)
 .debug_abbrev  0x000018d5      0x23d build/lib/liblibbsp.a(timer.c.obj)
 .debug_abbrev  0x00001b12      0x22f build/lib/liblibbsp.a(usart.c.obj)
 .debug_abbrev  0x00001d41      0x283 build/lib/liblibdrivers.a(stm32f4xx_hal.c.obj)
 .debug_abbrev  0x00001fc4      0x2f0 build/lib/liblibdrivers.a(stm32f4xx_hal_adc.c.obj)
 .debug_abbrev  0x000022b4      0x2df build/lib/liblibdrivers.a(stm32f4xx_hal_adc_ex.c.obj)
 .debug_abbrev  0x00002593      0x386 build/lib/liblibdrivers.a(stm32f4xx_hal_cortex.c.obj)
 .debug_abbrev  0x00002919      0x335 build/lib/liblibdrivers.a(stm32f4xx_hal_dma.c.obj)
 .debug_abbrev  0x00002c4e      0x213 build/lib/liblibdrivers.a(stm32f4xx_hal_gpio.c.obj)
 .debug_abbrev  0x00002e61      0x350 build/lib/liblibdrivers.a(stm32f4xx_hal_rcc.c.obj)
 .debug_abbrev  0x000031b1      0x236 build/lib/liblibdrivers.a(stm32f4xx_hal_sram.c.obj)
 .debug_abbrev  0x000033e7      0x37e build/lib/liblibdrivers.a(stm32f4xx_hal_tim.c.obj)
 .debug_abbrev  0x00003765      0x38c build/lib/liblibdrivers.a(stm32f4xx_hal_tim_ex.c.obj)
 .debug_abbrev  0x00003af1      0x434 build/lib/liblibdrivers.a(stm32f4xx_hal_uart.c.obj)
 .debug_abbrev  0x00003f25      0x1ba build/lib/liblibdrivers.a(stm32f4xx_ll_fsmc.c.obj)
 .debug_abbrev  0x000040df      0x144 build/lib/liblibmodule.a(key.cpp.obj)

.debug_loclists
                0x00000000     0xd05f
 .debug_loclists
                0x00000000       0x38 CMakeFiles/Furina.elf.dir/Application/Base/ISR.cpp.obj
 .debug_loclists
                0x00000038      0x2cd CMakeFiles/Furina.elf.dir/Core/syscalls.c.obj
 .debug_loclists
                0x00000305       0x5a CMakeFiles/Furina.elf.dir/Core/sysmem.c.obj
 .debug_loclists
                0x0000035f       0xeb CMakeFiles/Furina.elf.dir/Core/system_stm32f4xx.c.obj
 .debug_loclists
                0x0000044a       0xb6 build/lib/liblibapp.a(baseInit.cpp.obj)
 .debug_loclists
                0x00000500       0x34 build/lib/liblibapp.a(app.cpp.obj)
 .debug_loclists
                0x00000534      0x11f build/lib/liblibbsp.a(lcd.c.obj)
 .debug_loclists
                0x00000653       0x96 build/lib/liblibbsp.a(timer.c.obj)
 .debug_loclists
                0x000006e9       0x61 build/lib/liblibbsp.a(usart.c.obj)
 .debug_loclists
                0x0000074a       0xf4 build/lib/liblibdrivers.a(stm32f4xx_hal.c.obj)
 .debug_loclists
                0x0000083e      0x7ae build/lib/liblibdrivers.a(stm32f4xx_hal_adc.c.obj)
 .debug_loclists
                0x00000fec      0x75f build/lib/liblibdrivers.a(stm32f4xx_hal_adc_ex.c.obj)
 .debug_loclists
                0x0000174b      0x5e7 build/lib/liblibdrivers.a(stm32f4xx_hal_cortex.c.obj)
 .debug_loclists
                0x00001d32      0x6bc build/lib/liblibdrivers.a(stm32f4xx_hal_dma.c.obj)
 .debug_loclists
                0x000023ee      0x693 build/lib/liblibdrivers.a(stm32f4xx_hal_gpio.c.obj)
 .debug_loclists
                0x00002a81      0x390 build/lib/liblibdrivers.a(stm32f4xx_hal_rcc.c.obj)
 .debug_loclists
                0x00002e11      0x984 build/lib/liblibdrivers.a(stm32f4xx_hal_sram.c.obj)
 .debug_loclists
                0x00003795     0x4fc5 build/lib/liblibdrivers.a(stm32f4xx_hal_tim.c.obj)
 .debug_loclists
                0x0000875a     0x11f6 build/lib/liblibdrivers.a(stm32f4xx_hal_tim_ex.c.obj)
 .debug_loclists
                0x00009950     0x321c build/lib/liblibdrivers.a(stm32f4xx_hal_uart.c.obj)
 .debug_loclists
                0x0000cb6c      0x49d build/lib/liblibdrivers.a(stm32f4xx_ll_fsmc.c.obj)
 .debug_loclists
                0x0000d009       0x56 build/lib/liblibmodule.a(key.cpp.obj)

.debug_aranges  0x00000000     0x12a8
 .debug_aranges
                0x00000000       0x40 CMakeFiles/Furina.elf.dir/Application/Base/ISR.cpp.obj
 .debug_aranges
                0x00000040       0x28 CMakeFiles/Furina.elf.dir/Core/startup_stm32f407vetx.s.obj
 .debug_aranges
                0x00000068      0x2d0 CMakeFiles/Furina.elf.dir/Core/stm32f4xx_it.c.obj
 .debug_aranges
                0x00000338       0xa8 CMakeFiles/Furina.elf.dir/Core/syscalls.c.obj
 .debug_aranges
                0x000003e0       0x20 CMakeFiles/Furina.elf.dir/Core/sysmem.c.obj
 .debug_aranges
                0x00000400       0x28 CMakeFiles/Furina.elf.dir/Core/system_stm32f4xx.c.obj
 .debug_aranges
                0x00000428       0x38 build/lib/liblibapp.a(baseInit.cpp.obj)
 .debug_aranges
                0x00000460       0x28 build/lib/liblibapp.a(main.cpp.obj)
 .debug_aranges
                0x00000488       0x38 build/lib/liblibapp.a(app.cpp.obj)
 .debug_aranges
                0x000004c0       0x28 build/lib/liblibbsp.a(CPU_RunTime.c.obj)
 .debug_aranges
                0x000004e8       0x28 build/lib/liblibbsp.a(adc.c.obj)
 .debug_aranges
                0x00000510       0x28 build/lib/liblibbsp.a(fsmc.c.obj)
 .debug_aranges
                0x00000538       0x20 build/lib/liblibbsp.a(key_exit.c.obj)
 .debug_aranges
                0x00000558       0x28 build/lib/liblibbsp.a(lcd.c.obj)
 .debug_aranges
                0x00000580       0x38 build/lib/liblibbsp.a(timer.c.obj)
 .debug_aranges
                0x000005b8       0x30 build/lib/liblibbsp.a(usart.c.obj)
 .debug_aranges
                0x000005e8       0xf0 build/lib/liblibdrivers.a(stm32f4xx_hal.c.obj)
 .debug_aranges
                0x000006d8       0xe0 build/lib/liblibdrivers.a(stm32f4xx_hal_adc.c.obj)
 .debug_aranges
                0x000007b8       0x90 build/lib/liblibdrivers.a(stm32f4xx_hal_adc_ex.c.obj)
 .debug_aranges
                0x00000848       0xc0 build/lib/liblibdrivers.a(stm32f4xx_hal_cortex.c.obj)
 .debug_aranges
                0x00000908       0x78 build/lib/liblibdrivers.a(stm32f4xx_hal_dma.c.obj)
 .debug_aranges
                0x00000980       0x58 build/lib/liblibdrivers.a(stm32f4xx_hal_gpio.c.obj)
 .debug_aranges
                0x000009d8       0x88 build/lib/liblibdrivers.a(stm32f4xx_hal_rcc.c.obj)
 .debug_aranges
                0x00000a60       0xb8 build/lib/liblibdrivers.a(stm32f4xx_hal_sram.c.obj)
 .debug_aranges
                0x00000b18      0x380 build/lib/liblibdrivers.a(stm32f4xx_hal_tim.c.obj)
 .debug_aranges
                0x00000e98      0x160 build/lib/liblibdrivers.a(stm32f4xx_hal_tim_ex.c.obj)
 .debug_aranges
                0x00000ff8      0x1d8 build/lib/liblibdrivers.a(stm32f4xx_hal_uart.c.obj)
 .debug_aranges
                0x000011d0       0xa8 build/lib/liblibdrivers.a(stm32f4xx_ll_fsmc.c.obj)
 .debug_aranges
                0x00001278       0x30 build/lib/liblibmodule.a(key.cpp.obj)

.debug_rnglists
                0x00000000     0x157c
 .debug_rnglists
                0x00000000       0x49 CMakeFiles/Furina.elf.dir/Application/Base/ISR.cpp.obj
 .debug_rnglists
                0x00000049       0x19 CMakeFiles/Furina.elf.dir/Core/startup_stm32f407vetx.s.obj
 .debug_rnglists
                0x00000062      0x217 CMakeFiles/Furina.elf.dir/Core/stm32f4xx_it.c.obj
 .debug_rnglists
                0x00000279       0x85 CMakeFiles/Furina.elf.dir/Core/syscalls.c.obj
 .debug_rnglists
                0x000002fe       0x13 CMakeFiles/Furina.elf.dir/Core/sysmem.c.obj
 .debug_rnglists
                0x00000311       0x19 CMakeFiles/Furina.elf.dir/Core/system_stm32f4xx.c.obj
 .debug_rnglists
                0x0000032a       0x61 build/lib/liblibapp.a(baseInit.cpp.obj)
 .debug_rnglists
                0x0000038b       0x19 build/lib/liblibapp.a(main.cpp.obj)
 .debug_rnglists
                0x000003a4       0x49 build/lib/liblibapp.a(app.cpp.obj)
 .debug_rnglists
                0x000003ed       0x2e build/lib/liblibbsp.a(CPU_RunTime.c.obj)
 .debug_rnglists
                0x0000041b       0x38 build/lib/liblibbsp.a(adc.c.obj)
 .debug_rnglists
                0x00000453       0x4e build/lib/liblibbsp.a(fsmc.c.obj)
 .debug_rnglists
                0x000004a1       0x28 build/lib/liblibbsp.a(key_exit.c.obj)
 .debug_rnglists
                0x000004c9       0x35 build/lib/liblibbsp.a(lcd.c.obj)
 .debug_rnglists
                0x000004fe       0x4f build/lib/liblibbsp.a(timer.c.obj)
 .debug_rnglists
                0x0000054d       0x3e build/lib/liblibbsp.a(usart.c.obj)
 .debug_rnglists
                0x0000058b       0xaf build/lib/liblibdrivers.a(stm32f4xx_hal.c.obj)
 .debug_rnglists
                0x0000063a       0xc7 build/lib/liblibdrivers.a(stm32f4xx_hal_adc.c.obj)
 .debug_rnglists
                0x00000701       0x6c build/lib/liblibdrivers.a(stm32f4xx_hal_adc_ex.c.obj)
 .debug_rnglists
                0x0000076d      0x100 build/lib/liblibdrivers.a(stm32f4xx_hal_cortex.c.obj)
 .debug_rnglists
                0x0000086d       0x9e build/lib/liblibdrivers.a(stm32f4xx_hal_dma.c.obj)
 .debug_rnglists
                0x0000090b       0x52 build/lib/liblibdrivers.a(stm32f4xx_hal_gpio.c.obj)
 .debug_rnglists
                0x0000095d       0xca build/lib/liblibdrivers.a(stm32f4xx_hal_rcc.c.obj)
 .debug_rnglists
                0x00000a27       0x85 build/lib/liblibdrivers.a(stm32f4xx_hal_sram.c.obj)
 .debug_rnglists
                0x00000aac      0x618 build/lib/liblibdrivers.a(stm32f4xx_hal_tim.c.obj)
 .debug_rnglists
                0x000010c4      0x18a build/lib/liblibdrivers.a(stm32f4xx_hal_tim_ex.c.obj)
 .debug_rnglists
                0x0000124e      0x296 build/lib/liblibdrivers.a(stm32f4xx_hal_uart.c.obj)
 .debug_rnglists
                0x000014e4       0x79 build/lib/liblibdrivers.a(stm32f4xx_ll_fsmc.c.obj)
 .debug_rnglists
                0x0000155d       0x1f build/lib/liblibmodule.a(key.cpp.obj)

.debug_line     0x00000000    0x15d3f
 .debug_line    0x00000000      0x4b9 CMakeFiles/Furina.elf.dir/Application/Base/ISR.cpp.obj
 .debug_line    0x000004b9       0x7a CMakeFiles/Furina.elf.dir/Core/startup_stm32f407vetx.s.obj
 .debug_line    0x00000533      0x968 CMakeFiles/Furina.elf.dir/Core/stm32f4xx_it.c.obj
 .debug_line    0x00000e9b      0x435 CMakeFiles/Furina.elf.dir/Core/syscalls.c.obj
 .debug_line    0x000012d0      0x200 CMakeFiles/Furina.elf.dir/Core/sysmem.c.obj
 .debug_line    0x000014d0      0x285 CMakeFiles/Furina.elf.dir/Core/system_stm32f4xx.c.obj
 .debug_line    0x00001755      0x56a build/lib/liblibapp.a(baseInit.cpp.obj)
 .debug_line    0x00001cbf      0x306 build/lib/liblibapp.a(main.cpp.obj)
 .debug_line    0x00001fc5      0x624 build/lib/liblibapp.a(app.cpp.obj)
 .debug_line    0x000025e9      0x2d4 build/lib/liblibbsp.a(CPU_RunTime.c.obj)
 .debug_line    0x000028bd      0x335 build/lib/liblibbsp.a(adc.c.obj)
 .debug_line    0x00002bf2      0x43b build/lib/liblibbsp.a(fsmc.c.obj)
 .debug_line    0x0000302d      0x22d build/lib/liblibbsp.a(key_exit.c.obj)
 .debug_line    0x0000325a      0x382 build/lib/liblibbsp.a(lcd.c.obj)
 .debug_line    0x000035dc      0x380 build/lib/liblibbsp.a(timer.c.obj)
 .debug_line    0x0000395c      0x2e8 build/lib/liblibbsp.a(usart.c.obj)
 .debug_line    0x00003c44      0x638 build/lib/liblibdrivers.a(stm32f4xx_hal.c.obj)
 .debug_line    0x0000427c     0x1182 build/lib/liblibdrivers.a(stm32f4xx_hal_adc.c.obj)
 .debug_line    0x000053fe      0xd41 build/lib/liblibdrivers.a(stm32f4xx_hal_adc_ex.c.obj)
 .debug_line    0x0000613f      0x8da build/lib/liblibdrivers.a(stm32f4xx_hal_cortex.c.obj)
 .debug_line    0x00006a19      0xf7e build/lib/liblibdrivers.a(stm32f4xx_hal_dma.c.obj)
 .debug_line    0x00007997      0xaa8 build/lib/liblibdrivers.a(stm32f4xx_hal_gpio.c.obj)
 .debug_line    0x0000843f      0xcea build/lib/liblibdrivers.a(stm32f4xx_hal_rcc.c.obj)
 .debug_line    0x00009129      0xa63 build/lib/liblibdrivers.a(stm32f4xx_hal_sram.c.obj)
 .debug_line    0x00009b8c     0x5eb9 build/lib/liblibdrivers.a(stm32f4xx_hal_tim.c.obj)
 .debug_line    0x0000fa45     0x17e0 build/lib/liblibdrivers.a(stm32f4xx_hal_tim_ex.c.obj)
 .debug_line    0x00011225     0x403e build/lib/liblibdrivers.a(stm32f4xx_hal_uart.c.obj)
 .debug_line    0x00015263      0x7ac build/lib/liblibdrivers.a(stm32f4xx_ll_fsmc.c.obj)
 .debug_line    0x00015a0f      0x330 build/lib/liblibmodule.a(key.cpp.obj)

.debug_str      0x00000000     0x5f83
 .debug_str     0x00000000     0x5f83 CMakeFiles/Furina.elf.dir/Application/Base/ISR.cpp.obj
                                0xdf1 (size before relaxing)
 .debug_str     0x00005f83       0x91 CMakeFiles/Furina.elf.dir/Core/startup_stm32f407vetx.s.obj
 .debug_str     0x00005f83      0x7e1 CMakeFiles/Furina.elf.dir/Core/stm32f4xx_it.c.obj
 .debug_str     0x00005f83      0x432 CMakeFiles/Furina.elf.dir/Core/syscalls.c.obj
 .debug_str     0x00005f83      0x25e CMakeFiles/Furina.elf.dir/Core/sysmem.c.obj
 .debug_str     0x00005f83      0x3ae CMakeFiles/Furina.elf.dir/Core/system_stm32f4xx.c.obj
 .debug_str     0x00005f83     0x12a5 build/lib/liblibapp.a(baseInit.cpp.obj)
 .debug_str     0x00005f83      0x547 build/lib/liblibapp.a(main.cpp.obj)
 .debug_str     0x00005f83     0x14ed build/lib/liblibapp.a(app.cpp.obj)
 .debug_str     0x00005f83      0xe46 build/lib/liblibbsp.a(CPU_RunTime.c.obj)
 .debug_str     0x00005f83      0xd1e build/lib/liblibbsp.a(adc.c.obj)
 .debug_str     0x00005f83      0xddd build/lib/liblibbsp.a(fsmc.c.obj)
 .debug_str     0x00005f83      0x8a2 build/lib/liblibbsp.a(key_exit.c.obj)
 .debug_str     0x00005f83      0x4d2 build/lib/liblibbsp.a(lcd.c.obj)
 .debug_str     0x00005f83      0xe96 build/lib/liblibbsp.a(timer.c.obj)
 .debug_str     0x00005f83      0xd81 build/lib/liblibbsp.a(usart.c.obj)
 .debug_str     0x00005f83      0xba1 build/lib/liblibdrivers.a(stm32f4xx_hal.c.obj)
 .debug_str     0x00005f83      0x99f build/lib/liblibdrivers.a(stm32f4xx_hal_adc.c.obj)
 .debug_str     0x00005f83      0x9f3 build/lib/liblibdrivers.a(stm32f4xx_hal_adc_ex.c.obj)
 .debug_str     0x00005f83      0xcb2 build/lib/liblibdrivers.a(stm32f4xx_hal_cortex.c.obj)
 .debug_str     0x00005f83      0x7b3 build/lib/liblibdrivers.a(stm32f4xx_hal_dma.c.obj)
 .debug_str     0x00005f83      0x51d build/lib/liblibdrivers.a(stm32f4xx_hal_gpio.c.obj)
 .debug_str     0x00005f83      0x743 build/lib/liblibdrivers.a(stm32f4xx_hal_rcc.c.obj)
 .debug_str     0x00005f83      0x9b0 build/lib/liblibdrivers.a(stm32f4xx_hal_sram.c.obj)
 .debug_str     0x00005f83     0x173c build/lib/liblibdrivers.a(stm32f4xx_hal_tim.c.obj)
 .debug_str     0x00005f83      0xf48 build/lib/liblibdrivers.a(stm32f4xx_hal_tim_ex.c.obj)
 .debug_str     0x00005f83      0xdd8 build/lib/liblibdrivers.a(stm32f4xx_hal_uart.c.obj)
 .debug_str     0x00005f83      0x776 build/lib/liblibdrivers.a(stm32f4xx_ll_fsmc.c.obj)
 .debug_str     0x00005f83      0x542 build/lib/liblibmodule.a(key.cpp.obj)

.comment        0x00000000       0x45
 .comment       0x00000000       0x45 CMakeFiles/Furina.elf.dir/Application/Base/ISR.cpp.obj
                                 0x46 (size before relaxing)
 .comment       0x00000045       0x46 CMakeFiles/Furina.elf.dir/Core/stm32f4xx_it.c.obj
 .comment       0x00000045       0x46 CMakeFiles/Furina.elf.dir/Core/syscalls.c.obj
 .comment       0x00000045       0x46 CMakeFiles/Furina.elf.dir/Core/sysmem.c.obj
 .comment       0x00000045       0x46 CMakeFiles/Furina.elf.dir/Core/system_stm32f4xx.c.obj
 .comment       0x00000045       0x46 build/lib/liblibapp.a(baseInit.cpp.obj)
 .comment       0x00000045       0x46 build/lib/liblibapp.a(main.cpp.obj)
 .comment       0x00000045       0x46 build/lib/liblibapp.a(app.cpp.obj)
 .comment       0x00000045       0x46 build/lib/liblibbsp.a(CPU_RunTime.c.obj)
 .comment       0x00000045       0x46 build/lib/liblibbsp.a(adc.c.obj)
 .comment       0x00000045       0x46 build/lib/liblibbsp.a(fsmc.c.obj)
 .comment       0x00000045       0x46 build/lib/liblibbsp.a(key_exit.c.obj)
 .comment       0x00000045       0x46 build/lib/liblibbsp.a(lcd.c.obj)
 .comment       0x00000045       0x46 build/lib/liblibbsp.a(timer.c.obj)
 .comment       0x00000045       0x46 build/lib/liblibbsp.a(usart.c.obj)
 .comment       0x00000045       0x46 build/lib/liblibdrivers.a(stm32f4xx_hal.c.obj)
 .comment       0x00000045       0x46 build/lib/liblibdrivers.a(stm32f4xx_hal_adc.c.obj)
 .comment       0x00000045       0x46 build/lib/liblibdrivers.a(stm32f4xx_hal_adc_ex.c.obj)
 .comment       0x00000045       0x46 build/lib/liblibdrivers.a(stm32f4xx_hal_cortex.c.obj)
 .comment       0x00000045       0x46 build/lib/liblibdrivers.a(stm32f4xx_hal_dma.c.obj)
 .comment       0x00000045       0x46 build/lib/liblibdrivers.a(stm32f4xx_hal_gpio.c.obj)
 .comment       0x00000045       0x46 build/lib/liblibdrivers.a(stm32f4xx_hal_rcc.c.obj)
 .comment       0x00000045       0x46 build/lib/liblibdrivers.a(stm32f4xx_hal_sram.c.obj)
 .comment       0x00000045       0x46 build/lib/liblibdrivers.a(stm32f4xx_hal_tim.c.obj)
 .comment       0x00000045       0x46 build/lib/liblibdrivers.a(stm32f4xx_hal_tim_ex.c.obj)
 .comment       0x00000045       0x46 build/lib/liblibdrivers.a(stm32f4xx_hal_uart.c.obj)
 .comment       0x00000045       0x46 build/lib/liblibdrivers.a(stm32f4xx_ll_fsmc.c.obj)
 .comment       0x00000045       0x46 build/lib/liblibmodule.a(key.cpp.obj)

.debug_frame    0x00000000     0x4a64
 .debug_frame   0x00000000       0x68 CMakeFiles/Furina.elf.dir/Application/Base/ISR.cpp.obj
 .debug_frame   0x00000068      0x580 CMakeFiles/Furina.elf.dir/Core/stm32f4xx_it.c.obj
 .debug_frame   0x000005e8      0x190 CMakeFiles/Furina.elf.dir/Core/syscalls.c.obj
 .debug_frame   0x00000778       0x28 CMakeFiles/Furina.elf.dir/Core/sysmem.c.obj
 .debug_frame   0x000007a0       0x30 CMakeFiles/Furina.elf.dir/Core/system_stm32f4xx.c.obj
 .debug_frame   0x000007d0       0x8c build/lib/liblibapp.a(baseInit.cpp.obj)
 .debug_frame   0x0000085c       0x38 build/lib/liblibapp.a(main.cpp.obj)
 .debug_frame   0x00000894       0x88 build/lib/liblibapp.a(app.cpp.obj)
 .debug_frame   0x0000091c       0x40 build/lib/liblibbsp.a(CPU_RunTime.c.obj)
 .debug_frame   0x0000095c       0x40 build/lib/liblibbsp.a(adc.c.obj)
 .debug_frame   0x0000099c       0x58 build/lib/liblibbsp.a(fsmc.c.obj)
 .debug_frame   0x000009f4       0x30 build/lib/liblibbsp.a(key_exit.c.obj)
 .debug_frame   0x00000a24       0x50 build/lib/liblibbsp.a(lcd.c.obj)
 .debug_frame   0x00000a74       0x78 build/lib/liblibbsp.a(timer.c.obj)
 .debug_frame   0x00000aec       0x58 build/lib/liblibbsp.a(usart.c.obj)
 .debug_frame   0x00000b44      0x1f4 build/lib/liblibdrivers.a(stm32f4xx_hal.c.obj)
 .debug_frame   0x00000d38      0x2b0 build/lib/liblibdrivers.a(stm32f4xx_hal_adc.c.obj)
 .debug_frame   0x00000fe8      0x1a0 build/lib/liblibdrivers.a(stm32f4xx_hal_adc_ex.c.obj)
 .debug_frame   0x00001188      0x188 build/lib/liblibdrivers.a(stm32f4xx_hal_cortex.c.obj)
 .debug_frame   0x00001310      0x17c build/lib/liblibdrivers.a(stm32f4xx_hal_dma.c.obj)
 .debug_frame   0x0000148c       0xe0 build/lib/liblibdrivers.a(stm32f4xx_hal_gpio.c.obj)
 .debug_frame   0x0000156c      0x178 build/lib/liblibdrivers.a(stm32f4xx_hal_rcc.c.obj)
 .debug_frame   0x000016e4      0x204 build/lib/liblibdrivers.a(stm32f4xx_hal_sram.c.obj)
 .debug_frame   0x000018e8      0xac8 build/lib/liblibdrivers.a(stm32f4xx_hal_tim.c.obj)
 .debug_frame   0x000023b0      0x418 build/lib/liblibdrivers.a(stm32f4xx_hal_tim_ex.c.obj)
 .debug_frame   0x000027c8      0x5d0 build/lib/liblibdrivers.a(stm32f4xx_hal_uart.c.obj)
 .debug_frame   0x00002d98      0x1e4 build/lib/liblibdrivers.a(stm32f4xx_ll_fsmc.c.obj)
 .debug_frame   0x00002f7c       0x54 build/lib/liblibmodule.a(key.cpp.obj)
 .debug_frame   0x00002fd0       0xac E:/Tools/Develop/ToolsKits/ARM/arm-gnu-toolchain_v13_3/bin/../lib/gcc/arm-none-eabi/13.3.1/thumb/v7e-m+fp/hard\libgcc.a(_arm_addsubdf3.o)
 .debug_frame   0x0000307c       0x2c E:/Tools/Develop/ToolsKits/ARM/arm-gnu-toolchain_v13_3/bin/../lib/gcc/arm-none-eabi/13.3.1/thumb/v7e-m+fp/hard\libgcc.a(_aeabi_uldivmod.o)
 .debug_frame   0x000030a8       0x34 E:/Tools/Develop/ToolsKits/ARM/arm-gnu-toolchain_v13_3/bin/../lib/gcc/arm-none-eabi/13.3.1/thumb/v7e-m+fp/hard\libgcc.a(_udivmoddi4.o)
 .debug_frame   0x000030dc      0x2c8 E:/Tools/Develop/ToolsKits/ARM/arm-gnu-toolchain_v13_3/bin/../lib/gcc/arm-none-eabi/13.3.1/thumb/v7e-m+fp/hard\libgcc.a(unwind-arm.o)
 .debug_frame   0x000033a4      0x104 E:/Tools/Develop/ToolsKits/ARM/arm-gnu-toolchain_v13_3/bin/../lib/gcc/arm-none-eabi/13.3.1/thumb/v7e-m+fp/hard\libgcc.a(pr-support.o)
 .debug_frame   0x000034a8       0x28 E:/Tools/Develop/ToolsKits/ARM/arm-gnu-toolchain_v13_3/bin/../lib/gcc/arm-none-eabi/13.3.1/thumb/v7e-m+fp/hard\libc.a(libc_a-abort.o)
 .debug_frame   0x000034d0      0x13c E:/Tools/Develop/ToolsKits/ARM/arm-gnu-toolchain_v13_3/bin/../lib/gcc/arm-none-eabi/13.3.1/thumb/v7e-m+fp/hard\libc.a(libc_a-findfp.o)
 .debug_frame   0x0000360c       0x34 E:/Tools/Develop/ToolsKits/ARM/arm-gnu-toolchain_v13_3/bin/../lib/gcc/arm-none-eabi/13.3.1/thumb/v7e-m+fp/hard\libc.a(libc_a-fwalk.o)
 .debug_frame   0x00003640       0x74 E:/Tools/Develop/ToolsKits/ARM/arm-gnu-toolchain_v13_3/bin/../lib/gcc/arm-none-eabi/13.3.1/thumb/v7e-m+fp/hard\libc.a(libc_a-printf.o)
 .debug_frame   0x000036b4       0x8c E:/Tools/Develop/ToolsKits/ARM/arm-gnu-toolchain_v13_3/bin/../lib/gcc/arm-none-eabi/13.3.1/thumb/v7e-m+fp/hard\libc.a(libc_a-stdio.o)
 .debug_frame   0x00003740       0x2c E:/Tools/Develop/ToolsKits/ARM/arm-gnu-toolchain_v13_3/bin/../lib/gcc/arm-none-eabi/13.3.1/thumb/v7e-m+fp/hard\libc.a(libc_a-memset.o)
 .debug_frame   0x0000376c      0x118 E:/Tools/Develop/ToolsKits/ARM/arm-gnu-toolchain_v13_3/bin/../lib/gcc/arm-none-eabi/13.3.1/thumb/v7e-m+fp/hard\libc.a(libc_a-signal.o)
 .debug_frame   0x00003884       0x2c E:/Tools/Develop/ToolsKits/ARM/arm-gnu-toolchain_v13_3/bin/../lib/gcc/arm-none-eabi/13.3.1/thumb/v7e-m+fp/hard\libc.a(libc_a-closer.o)
 .debug_frame   0x000038b0       0x3c E:/Tools/Develop/ToolsKits/ARM/arm-gnu-toolchain_v13_3/bin/../lib/gcc/arm-none-eabi/13.3.1/thumb/v7e-m+fp/hard\libc.a(libc_a-reent.o)
 .debug_frame   0x000038ec       0x2c E:/Tools/Develop/ToolsKits/ARM/arm-gnu-toolchain_v13_3/bin/../lib/gcc/arm-none-eabi/13.3.1/thumb/v7e-m+fp/hard\libc.a(libc_a-lseekr.o)
 .debug_frame   0x00003918       0x2c E:/Tools/Develop/ToolsKits/ARM/arm-gnu-toolchain_v13_3/bin/../lib/gcc/arm-none-eabi/13.3.1/thumb/v7e-m+fp/hard\libc.a(libc_a-readr.o)
 .debug_frame   0x00003944       0x3c E:/Tools/Develop/ToolsKits/ARM/arm-gnu-toolchain_v13_3/bin/../lib/gcc/arm-none-eabi/13.3.1/thumb/v7e-m+fp/hard\libc.a(libc_a-signalr.o)
 .debug_frame   0x00003980       0x2c E:/Tools/Develop/ToolsKits/ARM/arm-gnu-toolchain_v13_3/bin/../lib/gcc/arm-none-eabi/13.3.1/thumb/v7e-m+fp/hard\libc.a(libc_a-writer.o)
 .debug_frame   0x000039ac       0x20 E:/Tools/Develop/ToolsKits/ARM/arm-gnu-toolchain_v13_3/bin/../lib/gcc/arm-none-eabi/13.3.1/thumb/v7e-m+fp/hard\libc.a(libc_a-errno.o)
 .debug_frame   0x000039cc       0x2c E:/Tools/Develop/ToolsKits/ARM/arm-gnu-toolchain_v13_3/bin/../lib/gcc/arm-none-eabi/13.3.1/thumb/v7e-m+fp/hard\libc.a(libc_a-init.o)
 .debug_frame   0x000039f8       0xb0 E:/Tools/Develop/ToolsKits/ARM/arm-gnu-toolchain_v13_3/bin/../lib/gcc/arm-none-eabi/13.3.1/thumb/v7e-m+fp/hard\libc.a(libc_a-lock.o)
 .debug_frame   0x00003aa8       0x5c E:/Tools/Develop/ToolsKits/ARM/arm-gnu-toolchain_v13_3/bin/../lib/gcc/arm-none-eabi/13.3.1/thumb/v7e-m+fp/hard\libc.a(libc_a-__call_atexit.o)
 .debug_frame   0x00003b04       0x20 E:/Tools/Develop/ToolsKits/ARM/arm-gnu-toolchain_v13_3/bin/../lib/gcc/arm-none-eabi/13.3.1/thumb/v7e-m+fp/hard\libc.a(libc_a-atexit.o)
 .debug_frame   0x00003b24       0x78 E:/Tools/Develop/ToolsKits/ARM/arm-gnu-toolchain_v13_3/bin/../lib/gcc/arm-none-eabi/13.3.1/thumb/v7e-m+fp/hard\libc.a(libc_a-freer.o)
 .debug_frame   0x00003b9c       0x48 E:/Tools/Develop/ToolsKits/ARM/arm-gnu-toolchain_v13_3/bin/../lib/gcc/arm-none-eabi/13.3.1/thumb/v7e-m+fp/hard\libc.a(libc_a-mallocr.o)
 .debug_frame   0x00003be4       0x30 E:/Tools/Develop/ToolsKits/ARM/arm-gnu-toolchain_v13_3/bin/../lib/gcc/arm-none-eabi/13.3.1/thumb/v7e-m+fp/hard\libc.a(libc_a-mlock.o)
 .debug_frame   0x00003c14       0x88 E:/Tools/Develop/ToolsKits/ARM/arm-gnu-toolchain_v13_3/bin/../lib/gcc/arm-none-eabi/13.3.1/thumb/v7e-m+fp/hard\libc.a(libc_a-vfprintf.o)
 .debug_frame   0x00003c9c       0x28 E:/Tools/Develop/ToolsKits/ARM/arm-gnu-toolchain_v13_3/bin/../lib/gcc/arm-none-eabi/13.3.1/thumb/v7e-m+fp/hard\libc.a(libc_a-sprint_r.o)
 .debug_frame   0x00003cc4       0x3c E:/Tools/Develop/ToolsKits/ARM/arm-gnu-toolchain_v13_3/bin/../lib/gcc/arm-none-eabi/13.3.1/thumb/v7e-m+fp/hard\libc.a(libc_a-fclose.o)
 .debug_frame   0x00003d00       0x70 E:/Tools/Develop/ToolsKits/ARM/arm-gnu-toolchain_v13_3/bin/../lib/gcc/arm-none-eabi/13.3.1/thumb/v7e-m+fp/hard\libc.a(libc_a-fflush.o)
 .debug_frame   0x00003d70       0x64 E:/Tools/Develop/ToolsKits/ARM/arm-gnu-toolchain_v13_3/bin/../lib/gcc/arm-none-eabi/13.3.1/thumb/v7e-m+fp/hard\libc.a(libc_a-fvwrite.o)
 .debug_frame   0x00003dd4       0x2c E:/Tools/Develop/ToolsKits/ARM/arm-gnu-toolchain_v13_3/bin/../lib/gcc/arm-none-eabi/13.3.1/thumb/v7e-m+fp/hard\libc.a(libc_a-wsetup.o)
 .debug_frame   0x00003e00       0x40 E:/Tools/Develop/ToolsKits/ARM/arm-gnu-toolchain_v13_3/bin/../lib/gcc/arm-none-eabi/13.3.1/thumb/v7e-m+fp/hard\libc.a(libc_a-memmove.o)
 .debug_frame   0x00003e40       0x28 E:/Tools/Develop/ToolsKits/ARM/arm-gnu-toolchain_v13_3/bin/../lib/gcc/arm-none-eabi/13.3.1/thumb/v7e-m+fp/hard\libc.a(libc_a-strncpy.o)
 .debug_frame   0x00003e68       0xe8 E:/Tools/Develop/ToolsKits/ARM/arm-gnu-toolchain_v13_3/bin/../lib/gcc/arm-none-eabi/13.3.1/thumb/v7e-m+fp/hard\libc.a(libc_a-locale.o)
 .debug_frame   0x00003f50       0x40 E:/Tools/Develop/ToolsKits/ARM/arm-gnu-toolchain_v13_3/bin/../lib/gcc/arm-none-eabi/13.3.1/thumb/v7e-m+fp/hard\libc.a(libc_a-localeconv.o)
 .debug_frame   0x00003f90       0x2c E:/Tools/Develop/ToolsKits/ARM/arm-gnu-toolchain_v13_3/bin/../lib/gcc/arm-none-eabi/13.3.1/thumb/v7e-m+fp/hard\libc.a(libc_a-sbrkr.o)
 .debug_frame   0x00003fbc       0x34 E:/Tools/Develop/ToolsKits/ARM/arm-gnu-toolchain_v13_3/bin/../lib/gcc/arm-none-eabi/13.3.1/thumb/v7e-m+fp/hard\libc.a(libc_a-fini.o)
 .debug_frame   0x00003ff0       0x28 E:/Tools/Develop/ToolsKits/ARM/arm-gnu-toolchain_v13_3/bin/../lib/gcc/arm-none-eabi/13.3.1/thumb/v7e-m+fp/hard\libc.a(libc_a-sysconf.o)
 .debug_frame   0x00004018       0x2c E:/Tools/Develop/ToolsKits/ARM/arm-gnu-toolchain_v13_3/bin/../lib/gcc/arm-none-eabi/13.3.1/thumb/v7e-m+fp/hard\libc.a(libm_a-s_frexp.o)
 .debug_frame   0x00004044       0x34 E:/Tools/Develop/ToolsKits/ARM/arm-gnu-toolchain_v13_3/bin/../lib/gcc/arm-none-eabi/13.3.1/thumb/v7e-m+fp/hard\libc.a(libc_a-__atexit.o)
 .debug_frame   0x00004078       0x84 E:/Tools/Develop/ToolsKits/ARM/arm-gnu-toolchain_v13_3/bin/../lib/gcc/arm-none-eabi/13.3.1/thumb/v7e-m+fp/hard\libc.a(libc_a-dtoa.o)
 .debug_frame   0x000040fc      0x130 E:/Tools/Develop/ToolsKits/ARM/arm-gnu-toolchain_v13_3/bin/../lib/gcc/arm-none-eabi/13.3.1/thumb/v7e-m+fp/hard\libc.a(libc_a-mbtowc_r.o)
 .debug_frame   0x0000422c      0x288 E:/Tools/Develop/ToolsKits/ARM/arm-gnu-toolchain_v13_3/bin/../lib/gcc/arm-none-eabi/13.3.1/thumb/v7e-m+fp/hard\libc.a(libc_a-mprec.o)
 .debug_frame   0x000044b4       0x48 E:/Tools/Develop/ToolsKits/ARM/arm-gnu-toolchain_v13_3/bin/../lib/gcc/arm-none-eabi/13.3.1/thumb/v7e-m+fp/hard\libc.a(libc_a-reallocr.o)
 .debug_frame   0x000044fc       0x8c E:/Tools/Develop/ToolsKits/ARM/arm-gnu-toolchain_v13_3/bin/../lib/gcc/arm-none-eabi/13.3.1/thumb/v7e-m+fp/hard\libc.a(libc_a-wctomb_r.o)
 .debug_frame   0x00004588       0x60 E:/Tools/Develop/ToolsKits/ARM/arm-gnu-toolchain_v13_3/bin/../lib/gcc/arm-none-eabi/13.3.1/thumb/v7e-m+fp/hard\libc.a(libc_a-wcrtomb.o)
 .debug_frame   0x000045e8       0x50 E:/Tools/Develop/ToolsKits/ARM/arm-gnu-toolchain_v13_3/bin/../lib/gcc/arm-none-eabi/13.3.1/thumb/v7e-m+fp/hard\libc.a(libc_a-wcsrtombs.o)
 .debug_frame   0x00004638       0x20 E:/Tools/Develop/ToolsKits/ARM/arm-gnu-toolchain_v13_3/bin/../lib/gcc/arm-none-eabi/13.3.1/thumb/v7e-m+fp/hard\libc.a(libc_a-ctype_.o)
 .debug_frame   0x00004658       0x70 E:/Tools/Develop/ToolsKits/ARM/arm-gnu-toolchain_v13_3/bin/../lib/gcc/arm-none-eabi/13.3.1/thumb/v7e-m+fp/hard\libc.a(libc_a-makebuf.o)
 .debug_frame   0x000046c8       0x2c E:/Tools/Develop/ToolsKits/ARM/arm-gnu-toolchain_v13_3/bin/../lib/gcc/arm-none-eabi/13.3.1/thumb/v7e-m+fp/hard\libc.a(libc_a-fstatr.o)
 .debug_frame   0x000046f4       0x2c E:/Tools/Develop/ToolsKits/ARM/arm-gnu-toolchain_v13_3/bin/../lib/gcc/arm-none-eabi/13.3.1/thumb/v7e-m+fp/hard\libc.a(libc_a-isattyr.o)
 .debug_frame   0x00004720       0x40 E:/Tools/Develop/ToolsKits/ARM/arm-gnu-toolchain_v13_3/bin/../lib/gcc/arm-none-eabi/13.3.1/thumb/v7e-m+fp/hard\libc.a(libc_a-assert.o)
 .debug_frame   0x00004760       0x2c E:/Tools/Develop/ToolsKits/ARM/arm-gnu-toolchain_v13_3/bin/../lib/gcc/arm-none-eabi/13.3.1/thumb/v7e-m+fp/hard\libc.a(libc_a-callocr.o)
 .debug_frame   0x0000478c       0x88 E:/Tools/Develop/ToolsKits/ARM/arm-gnu-toolchain_v13_3/bin/../lib/gcc/arm-none-eabi/13.3.1/thumb/v7e-m+fp/hard\libc.a(libc_a-wcsnrtombs.o)
 .debug_frame   0x00004814       0x70 E:/Tools/Develop/ToolsKits/ARM/arm-gnu-toolchain_v13_3/bin/../lib/gcc/arm-none-eabi/13.3.1/thumb/v7e-m+fp/hard\libc.a(libc_a-fiprintf.o)
 .debug_frame   0x00004884       0x88 E:/Tools/Develop/ToolsKits/ARM/arm-gnu-toolchain_v13_3/bin/../lib/gcc/arm-none-eabi/13.3.1/thumb/v7e-m+fp/hard\libc.a(libc_a-vfiprintf.o)
 .debug_frame   0x0000490c       0x50 E:/Tools/Develop/ToolsKits/ARM/arm-gnu-toolchain_v13_3/bin/../lib/gcc/arm-none-eabi/13.3.1/thumb/v7e-m+fp/hard\libgcc.a(_arm_muldivdf3.o)
 .debug_frame   0x0000495c       0xc4 E:/Tools/Develop/ToolsKits/ARM/arm-gnu-toolchain_v13_3/bin/../lib/gcc/arm-none-eabi/13.3.1/thumb/v7e-m+fp/hard\libgcc.a(_arm_cmpdf2.o)
 .debug_frame   0x00004a20       0x20 E:/Tools/Develop/ToolsKits/ARM/arm-gnu-toolchain_v13_3/bin/../lib/gcc/arm-none-eabi/13.3.1/thumb/v7e-m+fp/hard\libgcc.a(_arm_unorddf2.o)
 .debug_frame   0x00004a40       0x24 E:/Tools/Develop/ToolsKits/ARM/arm-gnu-toolchain_v13_3/bin/../lib/gcc/arm-none-eabi/13.3.1/thumb/v7e-m+fp/hard\libgcc.a(_arm_fixdfsi.o)

.debug_line_str
                0x00000000      0x25e
 .debug_line_str
                0x00000000      0x25e CMakeFiles/Furina.elf.dir/Core/startup_stm32f407vetx.s.obj
                                 0x75 (size before relaxing)
 .debug_line_str
                0x0000025e       0xce E:/Tools/Develop/ToolsKits/ARM/arm-gnu-toolchain_v13_3/bin/../lib/gcc/arm-none-eabi/13.3.1/thumb/v7e-m+fp/hard\libgcc.a(_arm_addsubdf3.o)
 .debug_line_str
                0x0000025e       0xc9 E:/Tools/Develop/ToolsKits/ARM/arm-gnu-toolchain_v13_3/bin/../lib/gcc/arm-none-eabi/13.3.1/thumb/v7e-m+fp/hard\libgcc.a(_aeabi_uldivmod.o)
 .debug_line_str
                0x0000025e       0xcd E:/Tools/Develop/ToolsKits/ARM/arm-gnu-toolchain_v13_3/bin/../lib/gcc/arm-none-eabi/13.3.1/thumb/v7e-m+fp/hard\libgcc.a(libunwind.o)
 .debug_line_str
                0x0000025e       0xcd E:/Tools/Develop/ToolsKits/ARM/arm-gnu-toolchain_v13_3/bin/../lib/gcc/arm-none-eabi/13.3.1/thumb/v7e-m+fp/hard\libgcc.a(_dvmd_tls.o)
 .debug_line_str
                0x0000025e       0xe3 E:/Tools/Develop/ToolsKits/ARM/arm-gnu-toolchain_v13_3/bin/../lib/gcc/arm-none-eabi/13.3.1/thumb/v7e-m+fp/hard\libc.a(libc_a-memcpy.o)
 .debug_line_str
                0x0000025e       0xdc E:/Tools/Develop/ToolsKits/ARM/arm-gnu-toolchain_v13_3/bin/../lib/gcc/arm-none-eabi/13.3.1/thumb/v7e-m+fp/hard\libc.a(libc_a-memchr.o)
 .debug_line_str
                0x0000025e       0xe2 E:/Tools/Develop/ToolsKits/ARM/arm-gnu-toolchain_v13_3/bin/../lib/gcc/arm-none-eabi/13.3.1/thumb/v7e-m+fp/hard\libc.a(libc_a-strlen.o)
 .debug_line_str
                0x0000025e       0xce E:/Tools/Develop/ToolsKits/ARM/arm-gnu-toolchain_v13_3/bin/../lib/gcc/arm-none-eabi/13.3.1/thumb/v7e-m+fp/hard\libgcc.a(_arm_muldivdf3.o)
 .debug_line_str
                0x0000025e       0xce E:/Tools/Develop/ToolsKits/ARM/arm-gnu-toolchain_v13_3/bin/../lib/gcc/arm-none-eabi/13.3.1/thumb/v7e-m+fp/hard\libgcc.a(_arm_cmpdf2.o)
 .debug_line_str
                0x0000025e       0xce E:/Tools/Develop/ToolsKits/ARM/arm-gnu-toolchain_v13_3/bin/../lib/gcc/arm-none-eabi/13.3.1/thumb/v7e-m+fp/hard\libgcc.a(_arm_unorddf2.o)
 .debug_line_str
                0x0000025e       0xce E:/Tools/Develop/ToolsKits/ARM/arm-gnu-toolchain_v13_3/bin/../lib/gcc/arm-none-eabi/13.3.1/thumb/v7e-m+fp/hard\libgcc.a(_arm_fixdfsi.o)
